
hello_world.elf:     file format elf32-littlearm


Disassembly of section rom_start:

00000000 <_vector_table>:
   0:	00 16 00 20 e1 06 00 00 db 3b 00 00 cd 06 00 00     ... .....;......
  10:	cd 06 00 00 cd 06 00 00 cd 06 00 00 00 00 00 00     ................
	...
  2c:	e9 07 00 00 cd 06 00 00 00 00 00 00 b5 07 00 00     ................
  3c:	cd 06 00 00                                         ....

00000040 <_irq_vector_table>:
  40:	85 09 00 00 85 09 00 00 85 09 00 00 85 09 00 00     ................
  50:	85 09 00 00 85 09 00 00 85 09 00 00 85 09 00 00     ................
  60:	85 09 00 00 85 09 00 00 85 09 00 00 85 09 00 00     ................
  70:	85 09 00 00 85 09 00 00 85 09 00 00 85 09 00 00     ................
  80:	85 09 00 00 85 09 00 00 85 09 00 00 85 09 00 00     ................
  90:	85 09 00 00 85 09 00 00 85 09 00 00 85 09 00 00     ................
  a0:	85 09 00 00 85 09 00 00 85 09 00 00 85 09 00 00     ................
  b0:	85 09 00 00 85 09 00 00 85 09 00 00 85 09 00 00     ................
  c0:	85 09 00 00 85 09 00 00 85 09 00 00 85 09 00 00     ................
  d0:	85 09 00 00 85 09 00 00 85 09 00 00 85 09 00 00     ................
  e0:	85 09 00 00 85 09 00 00 85 09 00 00 85 09 00 00     ................
  f0:	85 09 00 00 85 09 00 00 85 09 00 00 85 09 00 00     ................

Disassembly of section text:

00000100 <main>:
     100:	b508      	push	{r3, lr}
     102:	4903      	ldr	r1, [pc, #12]	; (110 <main+0x10>)
     104:	4803      	ldr	r0, [pc, #12]	; (114 <main+0x14>)
     106:	f003 f99f 	bl	3448 <printf>
     10a:	2000      	movs	r0, #0
     10c:	bd08      	pop	{r3, pc}
     10e:	bf00      	nop
     110:	000046c8 	.word	0x000046c8
     114:	000046dc 	.word	0x000046dc

00000118 <char_out>:
     118:	4b01      	ldr	r3, [pc, #4]	; (120 <char_out+0x8>)
     11a:	681b      	ldr	r3, [r3, #0]
     11c:	4718      	bx	r3
     11e:	bf00      	nop
     120:	200004c0 	.word	0x200004c0

00000124 <__printk_hook_install>:
     124:	4b01      	ldr	r3, [pc, #4]	; (12c <__printk_hook_install+0x8>)
     126:	6018      	str	r0, [r3, #0]
     128:	4770      	bx	lr
     12a:	bf00      	nop
     12c:	200004c0 	.word	0x200004c0

00000130 <vprintk>:
     130:	b530      	push	{r4, r5, lr}
     132:	b085      	sub	sp, #20
     134:	4604      	mov	r4, r0
     136:	460d      	mov	r5, r1
     138:	2210      	movs	r2, #16
     13a:	2100      	movs	r1, #0
     13c:	4668      	mov	r0, sp
     13e:	f004 f911 	bl	4364 <memset>
     142:	2302      	movs	r3, #2
     144:	f88d 3002 	strb.w	r3, [sp, #2]
     148:	462a      	mov	r2, r5
     14a:	4b04      	ldr	r3, [pc, #16]	; (15c <CONFIG_IDLE_STACK_SIZE+0x1c>)
     14c:	9301      	str	r3, [sp, #4]
     14e:	4621      	mov	r1, r4
     150:	4668      	mov	r0, sp
     152:	f003 f98b 	bl	346c <__l_vfprintf>
     156:	b005      	add	sp, #20
     158:	bd30      	pop	{r4, r5, pc}
     15a:	bf00      	nop
     15c:	00000119 	.word	0x00000119

00000160 <z_thread_entry>:
     160:	b580      	push	{r7, lr}
     162:	4605      	mov	r5, r0
     164:	460e      	mov	r6, r1
     166:	4617      	mov	r7, r2
     168:	4698      	mov	r8, r3
     16a:	f002 ff81 	bl	3070 <z_impl_k_sched_current_thread_query>
     16e:	4603      	mov	r3, r0
     170:	f004 f900 	bl	4374 <__aeabi_read_tp>
     174:	f8df 9018 	ldr.w	r9, [pc, #24]	; 190 <CONFIG_SYS_CLOCK_MAX_TIMEOUT_DAYS+0x23>
     178:	4604      	mov	r4, r0
     17a:	f849 3000 	str.w	r3, [r9, r0]
     17e:	4642      	mov	r2, r8
     180:	4630      	mov	r0, r6
     182:	4639      	mov	r1, r7
     184:	47a8      	blx	r5
     186:	f854 0009 	ldr.w	r0, [r4, r9]
     18a:	f000 fac1 	bl	710 <z_impl_k_thread_abort>
     18e:	bf00      	nop
     190:	00000008 	.word	0x00000008

00000194 <process_event>:
     194:	e92d 47f0 	stmdb	sp!, {r4, r5, r6, r7, r8, r9, sl, lr}
     198:	8b05      	ldrh	r5, [r0, #24]
     19a:	4604      	mov	r4, r0
     19c:	0728      	lsls	r0, r5, #28
     19e:	4690      	mov	r8, r2
     1a0:	d411      	bmi.n	1c6 <process_event+0x32>
     1a2:	2902      	cmp	r1, #2
     1a4:	f005 0507 	and.w	r5, r5, #7
     1a8:	f040 80cc 	bne.w	344 <process_event+0x1b0>
     1ac:	4620      	mov	r0, r4
     1ae:	f003 fc32 	bl	3a16 <process_recheck>
     1b2:	b178      	cbz	r0, 1d4 <process_event+0x40>
     1b4:	3801      	subs	r0, #1
     1b6:	8b21      	ldrh	r1, [r4, #24]
     1b8:	2804      	cmp	r0, #4
     1ba:	d811      	bhi.n	1e0 <process_event+0x4c>
     1bc:	e8df f000 	tbb	[pc, r0]
     1c0:	856d10c2 	.word	0x856d10c2
     1c4:	95          	.byte	0x95
     1c5:	00          	.byte	0x00
     1c6:	2901      	cmp	r1, #1
     1c8:	bf0c      	ite	eq
     1ca:	f045 0510 	orreq.w	r5, r5, #16
     1ce:	f045 0520 	orrne.w	r5, r5, #32
     1d2:	8325      	strh	r5, [r4, #24]
     1d4:	f388 8811 	msr	BASEPRI, r8
     1d8:	f3bf 8f6f 	isb	sy
     1dc:	e8bd 87f0 	ldmia.w	sp!, {r4, r5, r6, r7, r8, r9, sl, pc}
     1e0:	f001 0a07 	and.w	sl, r1, #7
     1e4:	45aa      	cmp	sl, r5
     1e6:	f000 80a5 	beq.w	334 <process_event+0x1a0>
     1ea:	2700      	movs	r7, #0
     1ec:	46b9      	mov	r9, r7
     1ee:	463e      	mov	r6, r7
     1f0:	68a3      	ldr	r3, [r4, #8]
     1f2:	2b00      	cmp	r3, #0
     1f4:	f000 80bc 	beq.w	370 <process_event+0x1dc>
     1f8:	f041 0108 	orr.w	r1, r1, #8
     1fc:	8321      	strh	r1, [r4, #24]
     1fe:	f388 8811 	msr	BASEPRI, r8
     202:	f3bf 8f6f 	isb	sy
     206:	68a1      	ldr	r1, [r4, #8]
     208:	2900      	cmp	r1, #0
     20a:	f000 80ba 	beq.w	382 <process_event+0x1ee>
     20e:	680d      	ldr	r5, [r1, #0]
     210:	2900      	cmp	r1, #0
     212:	f000 80b6 	beq.w	382 <process_event+0x1ee>
     216:	f8d1 8004 	ldr.w	r8, [r1, #4]
     21a:	4633      	mov	r3, r6
     21c:	4652      	mov	r2, sl
     21e:	4620      	mov	r0, r4
     220:	47c0      	blx	r8
     222:	2d00      	cmp	r5, #0
     224:	d076      	beq.n	314 <process_event+0x180>
     226:	682b      	ldr	r3, [r5, #0]
     228:	4629      	mov	r1, r5
     22a:	461d      	mov	r5, r3
     22c:	e7f0      	b.n	210 <process_event+0x7c>
     22e:	f001 0307 	and.w	r3, r1, #7
     232:	1f5a      	subs	r2, r3, #5
     234:	2a01      	cmp	r2, #1
     236:	d81b      	bhi.n	270 <process_event+0xdc>
     238:	2200      	movs	r2, #0
     23a:	f021 0107 	bic.w	r1, r1, #7
     23e:	2b06      	cmp	r3, #6
     240:	6827      	ldr	r7, [r4, #0]
     242:	b289      	uxth	r1, r1
     244:	e9c4 2200 	strd	r2, r2, [r4]
     248:	d109      	bne.n	25e <process_event+0xca>
     24a:	463b      	mov	r3, r7
     24c:	e003      	b.n	256 <process_event+0xc2>
     24e:	8b62      	ldrh	r2, [r4, #26]
     250:	3201      	adds	r2, #1
     252:	8362      	strh	r2, [r4, #26]
     254:	681b      	ldr	r3, [r3, #0]
     256:	2b00      	cmp	r3, #0
     258:	d1f9      	bne.n	24e <process_event+0xba>
     25a:	f041 0102 	orr.w	r1, r1, #2
     25e:	8321      	strh	r1, [r4, #24]
     260:	4620      	mov	r0, r4
     262:	f003 fbd8 	bl	3a16 <process_recheck>
     266:	2800      	cmp	r0, #0
     268:	d07a      	beq.n	360 <process_event+0x1cc>
     26a:	f041 0120 	orr.w	r1, r1, #32
     26e:	e076      	b.n	35e <process_event+0x1ca>
     270:	2b04      	cmp	r3, #4
     272:	d10a      	bne.n	28a <process_event+0xf6>
     274:	f021 0107 	bic.w	r1, r1, #7
     278:	b289      	uxth	r1, r1
     27a:	8321      	strh	r1, [r4, #24]
     27c:	4620      	mov	r0, r4
     27e:	f003 fbca 	bl	3a16 <process_recheck>
     282:	b110      	cbz	r0, 28a <process_event+0xf6>
     284:	f041 0120 	orr.w	r1, r1, #32
     288:	8321      	strh	r1, [r4, #24]
     28a:	8b21      	ldrh	r1, [r4, #24]
     28c:	f001 0a07 	and.w	sl, r1, #7
     290:	45aa      	cmp	sl, r5
     292:	d04f      	beq.n	334 <process_event+0x1a0>
     294:	2700      	movs	r7, #0
     296:	46b9      	mov	r9, r7
     298:	e7aa      	b.n	1f0 <process_event+0x5c>
     29a:	6923      	ldr	r3, [r4, #16]
     29c:	f021 0107 	bic.w	r1, r1, #7
     2a0:	f041 0106 	orr.w	r1, r1, #6
     2a4:	2d06      	cmp	r5, #6
     2a6:	f8d3 9000 	ldr.w	r9, [r3]
     2aa:	8321      	strh	r1, [r4, #24]
     2ac:	d12d      	bne.n	30a <process_event+0x176>
     2ae:	f1b9 0f00 	cmp.w	r9, #0
     2b2:	d03f      	beq.n	334 <process_event+0x1a0>
     2b4:	f041 0108 	orr.w	r1, r1, #8
     2b8:	8321      	strh	r1, [r4, #24]
     2ba:	f388 8811 	msr	BASEPRI, r8
     2be:	f3bf 8f6f 	isb	sy
     2c2:	493a      	ldr	r1, [pc, #232]	; (3ac <process_event+0x218>)
     2c4:	4620      	mov	r0, r4
     2c6:	47c8      	blx	r9
     2c8:	e029      	b.n	31e <process_event+0x18a>
     2ca:	f021 0107 	bic.w	r1, r1, #7
     2ce:	6923      	ldr	r3, [r4, #16]
     2d0:	f041 0104 	orr.w	r1, r1, #4
     2d4:	b289      	uxth	r1, r1
     2d6:	2d04      	cmp	r5, #4
     2d8:	f8d3 9004 	ldr.w	r9, [r3, #4]
     2dc:	8321      	strh	r1, [r4, #24]
     2de:	d0e6      	beq.n	2ae <process_event+0x11a>
     2e0:	2700      	movs	r7, #0
     2e2:	463e      	mov	r6, r7
     2e4:	f04f 0a04 	mov.w	sl, #4
     2e8:	e782      	b.n	1f0 <process_event+0x5c>
     2ea:	f021 0107 	bic.w	r1, r1, #7
     2ee:	6923      	ldr	r3, [r4, #16]
     2f0:	f041 0105 	orr.w	r1, r1, #5
     2f4:	b289      	uxth	r1, r1
     2f6:	2d05      	cmp	r5, #5
     2f8:	f8d3 9008 	ldr.w	r9, [r3, #8]
     2fc:	8321      	strh	r1, [r4, #24]
     2fe:	d0d6      	beq.n	2ae <process_event+0x11a>
     300:	2700      	movs	r7, #0
     302:	463e      	mov	r6, r7
     304:	f04f 0a05 	mov.w	sl, #5
     308:	e772      	b.n	1f0 <process_event+0x5c>
     30a:	2700      	movs	r7, #0
     30c:	463e      	mov	r6, r7
     30e:	f04f 0a06 	mov.w	sl, #6
     312:	e76d      	b.n	1f0 <process_event+0x5c>
     314:	462b      	mov	r3, r5
     316:	e787      	b.n	228 <process_event+0x94>
     318:	f1b9 0f00 	cmp.w	r9, #0
     31c:	d1d1      	bne.n	2c2 <process_event+0x12e>
     31e:	f3ef 8811 	mrs	r8, BASEPRI
     322:	2320      	movs	r3, #32
     324:	f383 8812 	msr	BASEPRI_MAX, r3
     328:	f3bf 8f6f 	isb	sy
     32c:	8b23      	ldrh	r3, [r4, #24]
     32e:	f023 0308 	bic.w	r3, r3, #8
     332:	8323      	strh	r3, [r4, #24]
     334:	8b25      	ldrh	r5, [r4, #24]
     336:	06ea      	lsls	r2, r5, #27
     338:	d52e      	bpl.n	398 <process_event+0x204>
     33a:	f025 0310 	bic.w	r3, r5, #16
     33e:	8323      	strh	r3, [r4, #24]
     340:	f005 0507 	and.w	r5, r5, #7
     344:	6966      	ldr	r6, [r4, #20]
     346:	8b21      	ldrh	r1, [r4, #24]
     348:	2e00      	cmp	r6, #0
     34a:	f6bf af70 	bge.w	22e <process_event+0x9a>
     34e:	2300      	movs	r3, #0
     350:	6827      	ldr	r7, [r4, #0]
     352:	e9c4 3300 	strd	r3, r3, [r4]
     356:	f021 0107 	bic.w	r1, r1, #7
     35a:	f041 0101 	orr.w	r1, r1, #1
     35e:	8321      	strh	r1, [r4, #24]
     360:	8b21      	ldrh	r1, [r4, #24]
     362:	f001 0a07 	and.w	sl, r1, #7
     366:	45aa      	cmp	sl, r5
     368:	f04f 0900 	mov.w	r9, #0
     36c:	f47f af40 	bne.w	1f0 <process_event+0x5c>
     370:	2f00      	cmp	r7, #0
     372:	d09c      	beq.n	2ae <process_event+0x11a>
     374:	f041 0108 	orr.w	r1, r1, #8
     378:	8321      	strh	r1, [r4, #24]
     37a:	f388 8811 	msr	BASEPRI, r8
     37e:	f3bf 8f6f 	isb	sy
     382:	2f00      	cmp	r7, #0
     384:	d0c8      	beq.n	318 <process_event+0x184>
     386:	683d      	ldr	r5, [r7, #0]
     388:	4639      	mov	r1, r7
     38a:	4633      	mov	r3, r6
     38c:	4652      	mov	r2, sl
     38e:	4620      	mov	r0, r4
     390:	f003 fb6d 	bl	3a6e <notify_one>
     394:	462f      	mov	r7, r5
     396:	e7f4      	b.n	382 <process_event+0x1ee>
     398:	06ab      	lsls	r3, r5, #26
     39a:	f57f af1b 	bpl.w	1d4 <process_event+0x40>
     39e:	f025 0320 	bic.w	r3, r5, #32
     3a2:	8323      	strh	r3, [r4, #24]
     3a4:	f005 0507 	and.w	r5, r5, #7
     3a8:	e700      	b.n	1ac <process_event+0x18>
     3aa:	bf00      	nop
     3ac:	00003a9b 	.word	0x00003a9b

000003b0 <mem_attr_get_regions>:
     3b0:	4b01      	ldr	r3, [pc, #4]	; (3b8 <mem_attr_get_regions+0x8>)
     3b2:	6003      	str	r3, [r0, #0]
     3b4:	2000      	movs	r0, #0
     3b6:	4770      	bx	lr
     3b8:	000045a8 	.word	0x000045a8

000003bc <z_SysNmiOnReset>:
     3bc:	bf30      	wfi
     3be:	f7ff bffd 	b.w	3bc <z_SysNmiOnReset>
     3c2:	bf00      	nop

000003c4 <arch_tls_stack_setup>:
     3c4:	e92d 41f0 	stmdb	sp!, {r4, r5, r6, r7, r8, lr}
     3c8:	4e0b      	ldr	r6, [pc, #44]	; (3f8 <arch_tls_stack_setup+0x34>)
     3ca:	f8df 8030 	ldr.w	r8, [pc, #48]	; 3fc <arch_tls_stack_setup+0x38>
     3ce:	eb06 0708 	add.w	r7, r6, r8
     3d2:	1bcc      	subs	r4, r1, r7
     3d4:	4605      	mov	r5, r0
     3d6:	4632      	mov	r2, r6
     3d8:	4909      	ldr	r1, [pc, #36]	; (400 <CONFIG_FLASH_SIZE>)
     3da:	4620      	mov	r0, r4
     3dc:	f003 ffb4 	bl	4348 <memcpy>
     3e0:	19a0      	adds	r0, r4, r6
     3e2:	4642      	mov	r2, r8
     3e4:	2100      	movs	r1, #0
     3e6:	3c08      	subs	r4, #8
     3e8:	f003 ffbc 	bl	4364 <memset>
     3ec:	672c      	str	r4, [r5, #112]	; 0x70
     3ee:	f107 0008 	add.w	r0, r7, #8
     3f2:	e8bd 81f0 	ldmia.w	sp!, {r4, r5, r6, r7, r8, pc}
     3f6:	bf00      	nop
     3f8:	00000000 	.word	0x00000000
     3fc:	00000004 	.word	0x00000004
     400:	00004598 	.word	0x00004598

00000404 <z_arm_exc_exit>:
     404:	4a07      	ldr	r2, [pc, #28]	; (424 <z_arm_exc_exit+0x20>)
     406:	6893      	ldr	r3, [r2, #8]
     408:	f993 100e 	ldrsb.w	r1, [r3, #14]
     40c:	2900      	cmp	r1, #0
     40e:	db07      	blt.n	420 <z_arm_exc_exit+0x1c>
     410:	6952      	ldr	r2, [r2, #20]
     412:	4293      	cmp	r3, r2
     414:	bf1f      	itttt	ne
     416:	4a04      	ldrne	r2, [pc, #16]	; (428 <z_arm_exc_exit+0x24>)
     418:	6853      	ldrne	r3, [r2, #4]
     41a:	f043 5380 	orrne.w	r3, r3, #268435456	; 0x10000000
     41e:	6053      	strne	r3, [r2, #4]
     420:	4770      	bx	lr
     422:	bf00      	nop
     424:	200007f4 	.word	0x200007f4
     428:	e000ed00 	.word	0xe000ed00

0000042c <mem_manage_fault>:
     42c:	b570      	push	{r4, r5, r6, lr}
     42e:	4b26      	ldr	r3, [pc, #152]	; (4c8 <__rtt_buff_data_size+0x10>)
     430:	4615      	mov	r5, r2
     432:	6a9a      	ldr	r2, [r3, #40]	; 0x28
     434:	f012 0f10 	tst.w	r2, #16
     438:	6a9a      	ldr	r2, [r3, #40]	; 0x28
     43a:	bf14      	ite	ne
     43c:	2411      	movne	r4, #17
     43e:	2410      	moveq	r4, #16
     440:	f012 0f08 	tst.w	r2, #8
     444:	6a9a      	ldr	r2, [r3, #40]	; 0x28
     446:	bf18      	it	ne
     448:	2412      	movne	r4, #18
     44a:	0792      	lsls	r2, r2, #30
     44c:	4606      	mov	r6, r0
     44e:	d50a      	bpl.n	466 <mem_manage_fault+0x3a>
     450:	6b58      	ldr	r0, [r3, #52]	; 0x34
     452:	6a9a      	ldr	r2, [r3, #40]	; 0x28
     454:	0614      	lsls	r4, r2, #24
     456:	d534      	bpl.n	4c2 <__rtt_buff_data_size+0xa>
     458:	b119      	cbz	r1, 462 <mem_manage_fault+0x36>
     45a:	6a9a      	ldr	r2, [r3, #40]	; 0x28
     45c:	f022 0280 	bic.w	r2, r2, #128	; 0x80
     460:	629a      	str	r2, [r3, #40]	; 0x28
     462:	2413      	movs	r4, #19
     464:	e001      	b.n	46a <mem_manage_fault+0x3e>
     466:	f06f 0015 	mvn.w	r0, #21
     46a:	4b17      	ldr	r3, [pc, #92]	; (4c8 <__rtt_buff_data_size+0x10>)
     46c:	6a9a      	ldr	r2, [r3, #40]	; 0x28
     46e:	f012 0f01 	tst.w	r2, #1
     472:	6a9a      	ldr	r2, [r3, #40]	; 0x28
     474:	bf18      	it	ne
     476:	2414      	movne	r4, #20
     478:	f012 0f20 	tst.w	r2, #32
     47c:	6a9a      	ldr	r2, [r3, #40]	; 0x28
     47e:	bf18      	it	ne
     480:	2415      	movne	r4, #21
     482:	06d2      	lsls	r2, r2, #27
     484:	d402      	bmi.n	48c <mem_manage_fault+0x60>
     486:	6a9b      	ldr	r3, [r3, #40]	; 0x28
     488:	079b      	lsls	r3, r3, #30
     48a:	d50a      	bpl.n	4a2 <mem_manage_fault+0x76>
     48c:	4b0e      	ldr	r3, [pc, #56]	; (4c8 <__rtt_buff_data_size+0x10>)
     48e:	685b      	ldr	r3, [r3, #4]
     490:	0519      	lsls	r1, r3, #20
     492:	d506      	bpl.n	4a2 <mem_manage_fault+0x76>
     494:	4631      	mov	r1, r6
     496:	f000 fa2b 	bl	8f0 <z_check_thread_stack_fail>
     49a:	b110      	cbz	r0, 4a2 <mem_manage_fault+0x76>
     49c:	f380 8809 	msr	PSP, r0
     4a0:	2402      	movs	r4, #2
     4a2:	4b09      	ldr	r3, [pc, #36]	; (4c8 <__rtt_buff_data_size+0x10>)
     4a4:	6a9a      	ldr	r2, [r3, #40]	; 0x28
     4a6:	0692      	lsls	r2, r2, #26
     4a8:	bf42      	ittt	mi
     4aa:	6a5a      	ldrmi	r2, [r3, #36]	; 0x24
     4ac:	f422 5200 	bicmi.w	r2, r2, #8192	; 0x2000
     4b0:	625a      	strmi	r2, [r3, #36]	; 0x24
     4b2:	6a9a      	ldr	r2, [r3, #40]	; 0x28
     4b4:	f042 02ff 	orr.w	r2, r2, #255	; 0xff
     4b8:	629a      	str	r2, [r3, #40]	; 0x28
     4ba:	2300      	movs	r3, #0
     4bc:	702b      	strb	r3, [r5, #0]
     4be:	4620      	mov	r0, r4
     4c0:	bd70      	pop	{r4, r5, r6, pc}
     4c2:	f06f 0015 	mvn.w	r0, #21
     4c6:	e7cc      	b.n	462 <mem_manage_fault+0x36>
     4c8:	e000ed00 	.word	0xe000ed00

000004cc <usage_fault.constprop.0>:
     4cc:	4b13      	ldr	r3, [pc, #76]	; (51c <usage_fault.constprop.0+0x50>)
     4ce:	6a9a      	ldr	r2, [r3, #40]	; 0x28
     4d0:	f012 7f00 	tst.w	r2, #33554432	; 0x2000000
     4d4:	6a9a      	ldr	r2, [r3, #40]	; 0x28
     4d6:	bf14      	ite	ne
     4d8:	201e      	movne	r0, #30
     4da:	201d      	moveq	r0, #29
     4dc:	f012 7f80 	tst.w	r2, #16777216	; 0x1000000
     4e0:	6a9a      	ldr	r2, [r3, #40]	; 0x28
     4e2:	bf18      	it	ne
     4e4:	201f      	movne	r0, #31
     4e6:	f412 2f00 	tst.w	r2, #524288	; 0x80000
     4ea:	6a9a      	ldr	r2, [r3, #40]	; 0x28
     4ec:	bf18      	it	ne
     4ee:	2021      	movne	r0, #33	; 0x21
     4f0:	f412 2f80 	tst.w	r2, #262144	; 0x40000
     4f4:	6a9a      	ldr	r2, [r3, #40]	; 0x28
     4f6:	bf18      	it	ne
     4f8:	2022      	movne	r0, #34	; 0x22
     4fa:	f412 3f00 	tst.w	r2, #131072	; 0x20000
     4fe:	6a9a      	ldr	r2, [r3, #40]	; 0x28
     500:	bf18      	it	ne
     502:	2023      	movne	r0, #35	; 0x23
     504:	f412 3f80 	tst.w	r2, #65536	; 0x10000
     508:	6a9a      	ldr	r2, [r3, #40]	; 0x28
     50a:	ea6f 4202 	mvn.w	r2, r2, lsl #16
     50e:	ea6f 4212 	mvn.w	r2, r2, lsr #16
     512:	629a      	str	r2, [r3, #40]	; 0x28
     514:	bf18      	it	ne
     516:	2024      	movne	r0, #36	; 0x24
     518:	4770      	bx	lr
     51a:	bf00      	nop
     51c:	e000ed00 	.word	0xe000ed00

00000520 <bus_fault.constprop.0>:
     520:	b510      	push	{r4, lr}
     522:	4b19      	ldr	r3, [pc, #100]	; (588 <bus_fault.constprop.0+0x68>)
     524:	4602      	mov	r2, r0
     526:	6a98      	ldr	r0, [r3, #40]	; 0x28
     528:	6a9c      	ldr	r4, [r3, #40]	; 0x28
     52a:	f410 5f80 	tst.w	r0, #4096	; 0x1000
     52e:	bf14      	ite	ne
     530:	2017      	movne	r0, #23
     532:	2016      	moveq	r0, #22
     534:	f414 6f00 	tst.w	r4, #2048	; 0x800
     538:	6a9c      	ldr	r4, [r3, #40]	; 0x28
     53a:	bf18      	it	ne
     53c:	2018      	movne	r0, #24
     53e:	05a4      	lsls	r4, r4, #22
     540:	d509      	bpl.n	556 <bus_fault.constprop.0+0x36>
     542:	6b98      	ldr	r0, [r3, #56]	; 0x38
     544:	6a98      	ldr	r0, [r3, #40]	; 0x28
     546:	0400      	lsls	r0, r0, #16
     548:	d504      	bpl.n	554 <bus_fault.constprop.0+0x34>
     54a:	b11a      	cbz	r2, 554 <bus_fault.constprop.0+0x34>
     54c:	6a9a      	ldr	r2, [r3, #40]	; 0x28
     54e:	f422 4200 	bic.w	r2, r2, #32768	; 0x8000
     552:	629a      	str	r2, [r3, #40]	; 0x28
     554:	2019      	movs	r0, #25
     556:	4b0c      	ldr	r3, [pc, #48]	; (588 <bus_fault.constprop.0+0x68>)
     558:	6a9a      	ldr	r2, [r3, #40]	; 0x28
     55a:	f412 6f80 	tst.w	r2, #1024	; 0x400
     55e:	6a9a      	ldr	r2, [r3, #40]	; 0x28
     560:	bf18      	it	ne
     562:	201a      	movne	r0, #26
     564:	05d2      	lsls	r2, r2, #23
     566:	d40c      	bmi.n	582 <bus_fault.constprop.0+0x62>
     568:	6a9b      	ldr	r3, [r3, #40]	; 0x28
     56a:	f413 5f00 	tst.w	r3, #8192	; 0x2000
     56e:	bf18      	it	ne
     570:	201c      	movne	r0, #28
     572:	4a05      	ldr	r2, [pc, #20]	; (588 <bus_fault.constprop.0+0x68>)
     574:	6a93      	ldr	r3, [r2, #40]	; 0x28
     576:	f443 437f 	orr.w	r3, r3, #65280	; 0xff00
     57a:	6293      	str	r3, [r2, #40]	; 0x28
     57c:	2300      	movs	r3, #0
     57e:	700b      	strb	r3, [r1, #0]
     580:	bd10      	pop	{r4, pc}
     582:	201b      	movs	r0, #27
     584:	e7f5      	b.n	572 <bus_fault.constprop.0+0x52>
     586:	bf00      	nop
     588:	e000ed00 	.word	0xe000ed00

0000058c <z_arm_fault>:
     58c:	b5f0      	push	{r4, r5, r6, r7, lr}
     58e:	4b48      	ldr	r3, [pc, #288]	; (6b0 <z_arm_fault+0x124>)
     590:	685b      	ldr	r3, [r3, #4]
     592:	b08b      	sub	sp, #44	; 0x2c
     594:	4604      	mov	r4, r0
     596:	f3c3 0308 	ubfx	r3, r3, #0, #9
     59a:	2500      	movs	r5, #0
     59c:	f385 8811 	msr	BASEPRI, r5
     5a0:	f3bf 8f6f 	isb	sy
     5a4:	f002 407f 	and.w	r0, r2, #4278190080	; 0xff000000
     5a8:	f1b0 4f7f 	cmp.w	r0, #4278190080	; 0xff000000
     5ac:	d111      	bne.n	5d2 <z_arm_fault+0x46>
     5ae:	f002 000c 	and.w	r0, r2, #12
     5b2:	2808      	cmp	r0, #8
     5b4:	d00d      	beq.n	5d2 <z_arm_fault+0x46>
     5b6:	0710      	lsls	r0, r2, #28
     5b8:	bf4c      	ite	mi
     5ba:	460c      	movmi	r4, r1
     5bc:	2501      	movpl	r5, #1
     5be:	2200      	movs	r2, #0
     5c0:	3b03      	subs	r3, #3
     5c2:	f88d 2007 	strb.w	r2, [sp, #7]
     5c6:	2b03      	cmp	r3, #3
     5c8:	d805      	bhi.n	5d6 <z_arm_fault+0x4a>
     5ca:	e8df f003 	tbb	[pc, r3]
     5ce:	6324      	.short	0x6324
     5d0:	6067      	.short	0x6067
     5d2:	462c      	mov	r4, r5
     5d4:	e7f3      	b.n	5be <z_arm_fault+0x32>
     5d6:	2300      	movs	r3, #0
     5d8:	f89d 2007 	ldrb.w	r2, [sp, #7]
     5dc:	b9ca      	cbnz	r2, 612 <z_arm_fault+0x86>
     5de:	ae02      	add	r6, sp, #8
     5e0:	f104 0720 	add.w	r7, r4, #32
     5e4:	6820      	ldr	r0, [r4, #0]
     5e6:	6861      	ldr	r1, [r4, #4]
     5e8:	4632      	mov	r2, r6
     5ea:	c203      	stmia	r2!, {r0, r1}
     5ec:	3408      	adds	r4, #8
     5ee:	42bc      	cmp	r4, r7
     5f0:	4616      	mov	r6, r2
     5f2:	d1f7      	bne.n	5e4 <z_arm_fault+0x58>
     5f4:	9a09      	ldr	r2, [sp, #36]	; 0x24
     5f6:	2d00      	cmp	r5, #0
     5f8:	d054      	beq.n	6a4 <z_arm_fault+0x118>
     5fa:	f3c2 0108 	ubfx	r1, r2, #0, #9
     5fe:	b921      	cbnz	r1, 60a <z_arm_fault+0x7e>
     600:	ea6f 2252 	mvn.w	r2, r2, lsr #9
     604:	ea6f 2242 	mvn.w	r2, r2, lsl #9
     608:	9209      	str	r2, [sp, #36]	; 0x24
     60a:	a902      	add	r1, sp, #8
     60c:	4618      	mov	r0, r3
     60e:	f003 fada 	bl	3bc6 <z_arm_fatal_error>
     612:	b00b      	add	sp, #44	; 0x2c
     614:	bdf0      	pop	{r4, r5, r6, r7, pc}
     616:	4b26      	ldr	r3, [pc, #152]	; (6b0 <z_arm_fault+0x124>)
     618:	6ada      	ldr	r2, [r3, #44]	; 0x2c
     61a:	0791      	lsls	r1, r2, #30
     61c:	d4db      	bmi.n	5d6 <z_arm_fault+0x4a>
     61e:	6ada      	ldr	r2, [r3, #44]	; 0x2c
     620:	2a00      	cmp	r2, #0
     622:	dbd8      	blt.n	5d6 <z_arm_fault+0x4a>
     624:	6ada      	ldr	r2, [r3, #44]	; 0x2c
     626:	0052      	lsls	r2, r2, #1
     628:	d5d5      	bpl.n	5d6 <z_arm_fault+0x4a>
     62a:	695a      	ldr	r2, [r3, #20]
     62c:	69a1      	ldr	r1, [r4, #24]
     62e:	f442 7280 	orr.w	r2, r2, #256	; 0x100
     632:	615a      	str	r2, [r3, #20]
     634:	f3bf 8f4f 	dsb	sy
     638:	f3bf 8f6f 	isb	sy
     63c:	695a      	ldr	r2, [r3, #20]
     63e:	f831 1c02 	ldrh.w	r1, [r1, #-2]
     642:	f422 7280 	bic.w	r2, r2, #256	; 0x100
     646:	615a      	str	r2, [r3, #20]
     648:	f3bf 8f4f 	dsb	sy
     64c:	f3bf 8f6f 	isb	sy
     650:	f64d 7202 	movw	r2, #57090	; 0xdf02
     654:	4291      	cmp	r1, r2
     656:	d00a      	beq.n	66e <z_arm_fault+0xe2>
     658:	6a9a      	ldr	r2, [r3, #40]	; 0x28
     65a:	b2d2      	uxtb	r2, r2
     65c:	b14a      	cbz	r2, 672 <z_arm_fault+0xe6>
     65e:	f10d 0207 	add.w	r2, sp, #7
     662:	2101      	movs	r1, #1
     664:	4620      	mov	r0, r4
     666:	f7ff fee1 	bl	42c <mem_manage_fault>
     66a:	4603      	mov	r3, r0
     66c:	e7b4      	b.n	5d8 <z_arm_fault+0x4c>
     66e:	6823      	ldr	r3, [r4, #0]
     670:	e7b2      	b.n	5d8 <z_arm_fault+0x4c>
     672:	6a9a      	ldr	r2, [r3, #40]	; 0x28
     674:	f412 4f7f 	tst.w	r2, #65280	; 0xff00
     678:	d005      	beq.n	686 <z_arm_fault+0xfa>
     67a:	f10d 0107 	add.w	r1, sp, #7
     67e:	2001      	movs	r0, #1
     680:	f7ff ff4e 	bl	520 <bus_fault.constprop.0>
     684:	e7f1      	b.n	66a <z_arm_fault+0xde>
     686:	6a9b      	ldr	r3, [r3, #40]	; 0x28
     688:	f5b3 3f80 	cmp.w	r3, #65536	; 0x10000
     68c:	d3a3      	bcc.n	5d6 <z_arm_fault+0x4a>
     68e:	f7ff ff1d 	bl	4cc <usage_fault.constprop.0>
     692:	e7ea      	b.n	66a <z_arm_fault+0xde>
     694:	f10d 0207 	add.w	r2, sp, #7
     698:	2100      	movs	r1, #0
     69a:	e7e3      	b.n	664 <z_arm_fault+0xd8>
     69c:	f10d 0107 	add.w	r1, sp, #7
     6a0:	2000      	movs	r0, #0
     6a2:	e7ed      	b.n	680 <z_arm_fault+0xf4>
     6a4:	f422 72ff 	bic.w	r2, r2, #510	; 0x1fe
     6a8:	f022 0201 	bic.w	r2, r2, #1
     6ac:	e7ac      	b.n	608 <z_arm_fault+0x7c>
     6ae:	bf00      	nop
     6b0:	e000ed00 	.word	0xe000ed00

000006b4 <z_arm_fault_init>:
     6b4:	4b04      	ldr	r3, [pc, #16]	; (6c8 <z_arm_fault_init+0x14>)
     6b6:	695a      	ldr	r2, [r3, #20]
     6b8:	f042 0210 	orr.w	r2, r2, #16
     6bc:	615a      	str	r2, [r3, #20]
     6be:	695a      	ldr	r2, [r3, #20]
     6c0:	f022 0208 	bic.w	r2, r2, #8
     6c4:	615a      	str	r2, [r3, #20]
     6c6:	4770      	bx	lr
     6c8:	e000ed00 	.word	0xe000ed00

000006cc <z_arm_bus_fault>:
     6cc:	f3ef 8008 	mrs	r0, MSP
     6d0:	f3ef 8109 	mrs	r1, PSP
     6d4:	b501      	push	{r0, lr}
     6d6:	4672      	mov	r2, lr
     6d8:	f7ff ff58 	bl	58c <z_arm_fault>
     6dc:	bd01      	pop	{r0, pc}
     6de:	bf00      	nop

000006e0 <__start>:
     6e0:	f001 fa32 	bl	1b48 <SystemInit>
     6e4:	2020      	movs	r0, #32
     6e6:	f380 8811 	msr	BASEPRI, r0
     6ea:	4808      	ldr	r0, [pc, #32]	; (70c <__start+0x2c>)
     6ec:	f44f 6104 	mov.w	r1, #2112	; 0x840
     6f0:	1840      	adds	r0, r0, r1
     6f2:	f380 8809 	msr	PSP, r0
     6f6:	f3ef 8014 	mrs	r0, CONTROL
     6fa:	2102      	movs	r1, #2
     6fc:	4308      	orrs	r0, r1
     6fe:	f380 8814 	msr	CONTROL, r0
     702:	f3bf 8f6f 	isb	sy
     706:	f000 f8b3 	bl	870 <z_prep_c>
     70a:	0000      	.short	0x0000
     70c:	20000840 	.word	0x20000840

00000710 <z_impl_k_thread_abort>:
     710:	4b08      	ldr	r3, [pc, #32]	; (734 <z_impl_k_thread_abort+0x24>)
     712:	689b      	ldr	r3, [r3, #8]
     714:	4283      	cmp	r3, r0
     716:	d10b      	bne.n	730 <z_impl_k_thread_abort+0x20>
     718:	f3ef 8305 	mrs	r3, IPSR
     71c:	b143      	cbz	r3, 730 <z_impl_k_thread_abort+0x20>
     71e:	4b06      	ldr	r3, [pc, #24]	; (738 <z_impl_k_thread_abort+0x28>)
     720:	685a      	ldr	r2, [r3, #4]
     722:	f042 5280 	orr.w	r2, r2, #268435456	; 0x10000000
     726:	605a      	str	r2, [r3, #4]
     728:	6a5a      	ldr	r2, [r3, #36]	; 0x24
     72a:	f422 4200 	bic.w	r2, r2, #32768	; 0x8000
     72e:	625a      	str	r2, [r3, #36]	; 0x24
     730:	f003 bd6c 	b.w	420c <z_thread_abort>
     734:	200007f4 	.word	0x200007f4
     738:	e000ed00 	.word	0xe000ed00

0000073c <arch_swap>:
     73c:	4a09      	ldr	r2, [pc, #36]	; (764 <arch_swap+0x28>)
     73e:	6893      	ldr	r3, [r2, #8]
     740:	f06f 010a 	mvn.w	r1, #10
     744:	6799      	str	r1, [r3, #120]	; 0x78
     746:	4908      	ldr	r1, [pc, #32]	; (768 <arch_swap+0x2c>)
     748:	6758      	str	r0, [r3, #116]	; 0x74
     74a:	684b      	ldr	r3, [r1, #4]
     74c:	f043 5380 	orr.w	r3, r3, #268435456	; 0x10000000
     750:	604b      	str	r3, [r1, #4]
     752:	2300      	movs	r3, #0
     754:	f383 8811 	msr	BASEPRI, r3
     758:	f3bf 8f6f 	isb	sy
     75c:	6893      	ldr	r3, [r2, #8]
     75e:	6f98      	ldr	r0, [r3, #120]	; 0x78
     760:	4770      	bx	lr
     762:	bf00      	nop
     764:	200007f4 	.word	0x200007f4
     768:	e000ed00 	.word	0xe000ed00

0000076c <z_arm_pendsv_c>:
     76c:	b510      	push	{r4, lr}
     76e:	4604      	mov	r4, r0
     770:	f3ef 8311 	mrs	r3, BASEPRI
     774:	2320      	movs	r3, #32
     776:	f383 8812 	msr	BASEPRI_MAX, r3
     77a:	f3bf 8f6f 	isb	sy
     77e:	4b0a      	ldr	r3, [pc, #40]	; (7a8 <z_arm_pendsv_c+0x3c>)
     780:	6958      	ldr	r0, [r3, #20]
     782:	6098      	str	r0, [r3, #8]
     784:	4b09      	ldr	r3, [pc, #36]	; (7ac <z_arm_pendsv_c+0x40>)
     786:	f04f 6200 	mov.w	r2, #134217728	; 0x8000000
     78a:	605a      	str	r2, [r3, #4]
     78c:	4b08      	ldr	r3, [pc, #32]	; (7b0 <z_arm_pendsv_c+0x44>)
     78e:	6f02      	ldr	r2, [r0, #112]	; 0x70
     790:	601a      	str	r2, [r3, #0]
     792:	2200      	movs	r2, #0
     794:	6f43      	ldr	r3, [r0, #116]	; 0x74
     796:	6742      	str	r2, [r0, #116]	; 0x74
     798:	f383 8811 	msr	BASEPRI, r3
     79c:	f3bf 8f6f 	isb	sy
     7a0:	f000 f90e 	bl	9c0 <z_arm_configure_dynamic_mpu_regions>
     7a4:	4620      	mov	r0, r4
     7a6:	bd10      	pop	{r4, pc}
     7a8:	200007f4 	.word	0x200007f4
     7ac:	e000ed00 	.word	0xe000ed00
     7b0:	20000740 	.word	0x20000740

000007b4 <z_arm_pendsv>:
     7b4:	490b      	ldr	r1, [pc, #44]	; (7e4 <z_arm_pendsv+0x30>)
     7b6:	688a      	ldr	r2, [r1, #8]
     7b8:	f04f 0030 	mov.w	r0, #48	; 0x30
     7bc:	4410      	add	r0, r2
     7be:	f3ef 8c09 	mrs	ip, PSP
     7c2:	e880 1ff0 	stmia.w	r0, {r4, r5, r6, r7, r8, r9, sl, fp, ip}
     7c6:	4674      	mov	r4, lr
     7c8:	4670      	mov	r0, lr
     7ca:	f7ff ffcf 	bl	76c <z_arm_pendsv_c>
     7ce:	46a6      	mov	lr, r4
     7d0:	4904      	ldr	r1, [pc, #16]	; (7e4 <z_arm_pendsv+0x30>)
     7d2:	688a      	ldr	r2, [r1, #8]
     7d4:	f102 0030 	add.w	r0, r2, #48	; 0x30
     7d8:	e890 1ff0 	ldmia.w	r0, {r4, r5, r6, r7, r8, r9, sl, fp, ip}
     7dc:	f38c 8809 	msr	PSP, ip
     7e0:	4770      	bx	lr
     7e2:	0000      	.short	0x0000
     7e4:	200007f4 	.word	0x200007f4

000007e8 <z_arm_svc>:
     7e8:	f01e 0f04 	tst.w	lr, #4
     7ec:	bf0c      	ite	eq
     7ee:	f3ef 8008 	mrseq	r0, MSP
     7f2:	f3ef 8009 	mrsne	r0, PSP
     7f6:	6981      	ldr	r1, [r0, #24]
     7f8:	f811 1c02 	ldrb.w	r1, [r1, #-2]
     7fc:	2902      	cmp	r1, #2
     7fe:	d0ff      	beq.n	800 <_oops>

00000800 <_oops>:
     800:	b501      	push	{r0, lr}
     802:	f003 f9e6 	bl	3bd2 <z_do_kernel_oops>
     806:	bd01      	pop	{r0, pc}

00000808 <arch_irq_enable>:
     808:	b240      	sxtb	r0, r0
     80a:	2800      	cmp	r0, #0
     80c:	db07      	blt.n	81e <arch_irq_enable+0x16>
     80e:	4a04      	ldr	r2, [pc, #16]	; (820 <arch_irq_enable+0x18>)
     810:	0941      	lsrs	r1, r0, #5
     812:	2301      	movs	r3, #1
     814:	f000 001f 	and.w	r0, r0, #31
     818:	4083      	lsls	r3, r0
     81a:	f842 3021 	str.w	r3, [r2, r1, lsl #2]
     81e:	4770      	bx	lr
     820:	e000e100 	.word	0xe000e100

00000824 <arch_irq_is_enabled>:
     824:	4b05      	ldr	r3, [pc, #20]	; (83c <arch_irq_is_enabled+0x18>)
     826:	0942      	lsrs	r2, r0, #5
     828:	f000 001f 	and.w	r0, r0, #31
     82c:	f853 2022 	ldr.w	r2, [r3, r2, lsl #2]
     830:	2301      	movs	r3, #1
     832:	fa03 f000 	lsl.w	r0, r3, r0
     836:	4010      	ands	r0, r2
     838:	4770      	bx	lr
     83a:	bf00      	nop
     83c:	e000e100 	.word	0xe000e100

00000840 <z_arm_irq_priority_set>:
     840:	b240      	sxtb	r0, r0
     842:	2800      	cmp	r0, #0
     844:	bfa8      	it	ge
     846:	f100 4060 	addge.w	r0, r0, #3758096384	; 0xe0000000
     84a:	f101 0101 	add.w	r1, r1, #1
     84e:	bfb8      	it	lt
     850:	4b06      	ldrlt	r3, [pc, #24]	; (86c <z_arm_irq_priority_set+0x2c>)
     852:	ea4f 1141 	mov.w	r1, r1, lsl #5
     856:	bfac      	ite	ge
     858:	f500 4061 	addge.w	r0, r0, #57600	; 0xe100
     85c:	f000 000f 	andlt.w	r0, r0, #15
     860:	b2c9      	uxtb	r1, r1
     862:	bfb4      	ite	lt
     864:	5419      	strblt	r1, [r3, r0]
     866:	f880 1300 	strbge.w	r1, [r0, #768]	; 0x300
     86a:	4770      	bx	lr
     86c:	e000ed14 	.word	0xe000ed14

00000870 <z_prep_c>:
     870:	4a0f      	ldr	r2, [pc, #60]	; (8b0 <z_prep_c+0x40>)
     872:	b508      	push	{r3, lr}
     874:	4b0f      	ldr	r3, [pc, #60]	; (8b4 <z_prep_c+0x44>)
     876:	f022 027f 	bic.w	r2, r2, #127	; 0x7f
     87a:	609a      	str	r2, [r3, #8]
     87c:	f3bf 8f4f 	dsb	sy
     880:	f3bf 8f6f 	isb	sy
     884:	f8d3 2088 	ldr.w	r2, [r3, #136]	; 0x88
     888:	f422 0270 	bic.w	r2, r2, #15728640	; 0xf00000
     88c:	f8c3 2088 	str.w	r2, [r3, #136]	; 0x88
     890:	f3ef 8314 	mrs	r3, CONTROL
     894:	f023 0304 	bic.w	r3, r3, #4
     898:	f383 8814 	msr	CONTROL, r3
     89c:	f3bf 8f6f 	isb	sy
     8a0:	f002 f840 	bl	2924 <z_bss_zero>
     8a4:	f002 fc70 	bl	3188 <z_data_copy>
     8a8:	f000 f860 	bl	96c <z_arm_interrupt_init>
     8ac:	f002 f87e 	bl	29ac <z_cstart>
     8b0:	00000000 	.word	0x00000000
     8b4:	e000ed00 	.word	0xe000ed00

000008b8 <arch_new_thread>:
     8b8:	f842 3c20 	str.w	r3, [r2, #-32]
     8bc:	9b00      	ldr	r3, [sp, #0]
     8be:	f842 3c1c 	str.w	r3, [r2, #-28]
     8c2:	490a      	ldr	r1, [pc, #40]	; (8ec <arch_new_thread+0x34>)
     8c4:	9b01      	ldr	r3, [sp, #4]
     8c6:	f842 3c18 	str.w	r3, [r2, #-24]
     8ca:	9b02      	ldr	r3, [sp, #8]
     8cc:	f842 3c14 	str.w	r3, [r2, #-20]
     8d0:	f021 0101 	bic.w	r1, r1, #1
     8d4:	f04f 7380 	mov.w	r3, #16777216	; 0x1000000
     8d8:	f842 3c04 	str.w	r3, [r2, #-4]
     8dc:	f842 1c08 	str.w	r1, [r2, #-8]
     8e0:	2300      	movs	r3, #0
     8e2:	3a20      	subs	r2, #32
     8e4:	6502      	str	r2, [r0, #80]	; 0x50
     8e6:	6743      	str	r3, [r0, #116]	; 0x74
     8e8:	4770      	bx	lr
     8ea:	bf00      	nop
     8ec:	00000161 	.word	0x00000161

000008f0 <z_check_thread_stack_fail>:
     8f0:	4a09      	ldr	r2, [pc, #36]	; (918 <z_check_thread_stack_fail+0x28>)
     8f2:	4603      	mov	r3, r0
     8f4:	6890      	ldr	r0, [r2, #8]
     8f6:	b170      	cbz	r0, 916 <z_check_thread_stack_fail+0x26>
     8f8:	f113 0f16 	cmn.w	r3, #22
     8fc:	6e00      	ldr	r0, [r0, #96]	; 0x60
     8fe:	d005      	beq.n	90c <z_check_thread_stack_fail+0x1c>
     900:	f1a0 0240 	sub.w	r2, r0, #64	; 0x40
     904:	429a      	cmp	r2, r3
     906:	d805      	bhi.n	914 <z_check_thread_stack_fail+0x24>
     908:	4283      	cmp	r3, r0
     90a:	d203      	bcs.n	914 <z_check_thread_stack_fail+0x24>
     90c:	4281      	cmp	r1, r0
     90e:	bf28      	it	cs
     910:	2000      	movcs	r0, #0
     912:	4770      	bx	lr
     914:	2000      	movs	r0, #0
     916:	4770      	bx	lr
     918:	200007f4 	.word	0x200007f4

0000091c <arch_switch_to_main_thread>:
     91c:	b508      	push	{r3, lr}
     91e:	4615      	mov	r5, r2
     920:	4a0b      	ldr	r2, [pc, #44]	; (950 <arch_switch_to_main_thread+0x34>)
     922:	4b0c      	ldr	r3, [pc, #48]	; (954 <arch_switch_to_main_thread+0x38>)
     924:	6090      	str	r0, [r2, #8]
     926:	6f02      	ldr	r2, [r0, #112]	; 0x70
     928:	601a      	str	r2, [r3, #0]
     92a:	460e      	mov	r6, r1
     92c:	f000 f848 	bl	9c0 <z_arm_configure_dynamic_mpu_regions>
     930:	462c      	mov	r4, r5
     932:	f386 8809 	msr	PSP, r6
     936:	f04f 0000 	mov.w	r0, #0
     93a:	4b07      	ldr	r3, [pc, #28]	; (958 <arch_switch_to_main_thread+0x3c>)
     93c:	4798      	blx	r3
     93e:	4620      	mov	r0, r4
     940:	f04f 0100 	mov.w	r1, #0
     944:	f04f 0200 	mov.w	r2, #0
     948:	f04f 0300 	mov.w	r3, #0
     94c:	4c03      	ldr	r4, [pc, #12]	; (95c <arch_switch_to_main_thread+0x40>)
     94e:	4720      	bx	r4
     950:	200007f4 	.word	0x200007f4
     954:	20000740 	.word	0x20000740
     958:	00003bf1 	.word	0x00003bf1
     95c:	00000161 	.word	0x00000161

00000960 <z_arm_cpu_idle_init>:
     960:	4b01      	ldr	r3, [pc, #4]	; (968 <z_arm_cpu_idle_init+0x8>)
     962:	2210      	movs	r2, #16
     964:	611a      	str	r2, [r3, #16]
     966:	4770      	bx	lr
     968:	e000ed00 	.word	0xe000ed00

0000096c <z_arm_interrupt_init>:
     96c:	4804      	ldr	r0, [pc, #16]	; (980 <z_arm_interrupt_init+0x14>)
     96e:	2300      	movs	r3, #0
     970:	2120      	movs	r1, #32
     972:	18c2      	adds	r2, r0, r3
     974:	3301      	adds	r3, #1
     976:	2b30      	cmp	r3, #48	; 0x30
     978:	f882 1300 	strb.w	r1, [r2, #768]	; 0x300
     97c:	d1f9      	bne.n	972 <z_arm_interrupt_init+0x6>
     97e:	4770      	bx	lr
     980:	e000e100 	.word	0xe000e100

00000984 <_isr_wrapper>:
     984:	b508      	push	{r3, lr}
     986:	f3ef 8305 	mrs	r3, IPSR
     98a:	4a06      	ldr	r2, [pc, #24]	; (9a4 <_isr_wrapper+0x20>)
     98c:	3b10      	subs	r3, #16
     98e:	eb02 01c3 	add.w	r1, r2, r3, lsl #3
     992:	f852 0033 	ldr.w	r0, [r2, r3, lsl #3]
     996:	6849      	ldr	r1, [r1, #4]
     998:	4788      	blx	r1
     99a:	e8bd 4008 	ldmia.w	sp!, {r3, lr}
     99e:	f7ff bd31 	b.w	404 <z_arm_exc_exit>
     9a2:	bf00      	nop
     9a4:	00004418 	.word	0x00004418

000009a8 <z_arm_configure_static_mpu_regions>:
     9a8:	4b02      	ldr	r3, [pc, #8]	; (9b4 <z_arm_configure_static_mpu_regions+0xc>)
     9aa:	4a03      	ldr	r2, [pc, #12]	; (9b8 <z_arm_configure_static_mpu_regions+0x10>)
     9ac:	4803      	ldr	r0, [pc, #12]	; (9bc <z_arm_configure_static_mpu_regions+0x14>)
     9ae:	2101      	movs	r1, #1
     9b0:	f000 b876 	b.w	aa0 <arm_core_mpu_configure_static_mpu_regions>
     9b4:	20040000 	.word	0x20040000
     9b8:	20000000 	.word	0x20000000
     9bc:	000045a8 	.word	0x000045a8

000009c0 <z_arm_configure_dynamic_mpu_regions>:
     9c0:	6e02      	ldr	r2, [r0, #96]	; 0x60
     9c2:	4b05      	ldr	r3, [pc, #20]	; (9d8 <z_arm_configure_dynamic_mpu_regions+0x18>)
     9c4:	3a40      	subs	r2, #64	; 0x40
     9c6:	601a      	str	r2, [r3, #0]
     9c8:	4a04      	ldr	r2, [pc, #16]	; (9dc <z_arm_configure_dynamic_mpu_regions+0x1c>)
     9ca:	2140      	movs	r1, #64	; 0x40
     9cc:	e9c3 1201 	strd	r1, r2, [r3, #4]
     9d0:	4618      	mov	r0, r3
     9d2:	2101      	movs	r1, #1
     9d4:	f000 b86e 	b.w	ab4 <arm_core_mpu_configure_dynamic_mpu_regions>
     9d8:	20000744 	.word	0x20000744
     9dc:	150b0000 	.word	0x150b0000

000009e0 <region_init>:
     9e0:	4a08      	ldr	r2, [pc, #32]	; (a04 <region_init+0x24>)
     9e2:	f8c2 0098 	str.w	r0, [r2, #152]	; 0x98
     9e6:	680b      	ldr	r3, [r1, #0]
     9e8:	f023 031f 	bic.w	r3, r3, #31
     9ec:	4303      	orrs	r3, r0
     9ee:	f043 0310 	orr.w	r3, r3, #16
     9f2:	f8c2 309c 	str.w	r3, [r2, #156]	; 0x9c
     9f6:	688b      	ldr	r3, [r1, #8]
     9f8:	f043 0301 	orr.w	r3, r3, #1
     9fc:	f8c2 30a0 	str.w	r3, [r2, #160]	; 0xa0
     a00:	4770      	bx	lr
     a02:	bf00      	nop
     a04:	e000ed00 	.word	0xe000ed00

00000a08 <mpu_configure_regions>:
     a08:	e92d 43f0 	stmdb	sp!, {r4, r5, r6, r7, r8, r9, lr}
     a0c:	f8df 8060 	ldr.w	r8, [pc, #96]	; a70 <mpu_configure_regions+0x68>
     a10:	b085      	sub	sp, #20
     a12:	460e      	mov	r6, r1
     a14:	461f      	mov	r7, r3
     a16:	4604      	mov	r4, r0
     a18:	f04f 0900 	mov.w	r9, #0
     a1c:	45b1      	cmp	r9, r6
     a1e:	da23      	bge.n	a68 <mpu_configure_regions+0x60>
     a20:	6860      	ldr	r0, [r4, #4]
     a22:	b1d8      	cbz	r0, a5c <mpu_configure_regions+0x54>
     a24:	b13f      	cbz	r7, a36 <mpu_configure_regions+0x2e>
     a26:	1e41      	subs	r1, r0, #1
     a28:	4208      	tst	r0, r1
     a2a:	d11b      	bne.n	a64 <mpu_configure_regions+0x5c>
     a2c:	281f      	cmp	r0, #31
     a2e:	d919      	bls.n	a64 <mpu_configure_regions+0x5c>
     a30:	6823      	ldr	r3, [r4, #0]
     a32:	4219      	tst	r1, r3
     a34:	d116      	bne.n	a64 <mpu_configure_regions+0x5c>
     a36:	6823      	ldr	r3, [r4, #0]
     a38:	9301      	str	r3, [sp, #4]
     a3a:	f003 f8fc 	bl	3c36 <size_to_mpu_rasr_size>
     a3e:	68a3      	ldr	r3, [r4, #8]
     a40:	4303      	orrs	r3, r0
     a42:	9303      	str	r3, [sp, #12]
     a44:	f8d8 5090 	ldr.w	r5, [r8, #144]	; 0x90
     a48:	f3c5 2507 	ubfx	r5, r5, #8, #8
     a4c:	b2d0      	uxtb	r0, r2
     a4e:	3d01      	subs	r5, #1
     a50:	42a8      	cmp	r0, r5
     a52:	d807      	bhi.n	a64 <mpu_configure_regions+0x5c>
     a54:	a901      	add	r1, sp, #4
     a56:	f7ff ffc3 	bl	9e0 <region_init>
     a5a:	1c42      	adds	r2, r0, #1
     a5c:	f109 0901 	add.w	r9, r9, #1
     a60:	340c      	adds	r4, #12
     a62:	e7db      	b.n	a1c <mpu_configure_regions+0x14>
     a64:	f06f 0215 	mvn.w	r2, #21
     a68:	4610      	mov	r0, r2
     a6a:	b005      	add	sp, #20
     a6c:	e8bd 83f0 	ldmia.w	sp!, {r4, r5, r6, r7, r8, r9, pc}
     a70:	e000ed00 	.word	0xe000ed00

00000a74 <arm_core_mpu_enable>:
     a74:	4b04      	ldr	r3, [pc, #16]	; (a88 <arm_core_mpu_enable+0x14>)
     a76:	2205      	movs	r2, #5
     a78:	f8c3 2094 	str.w	r2, [r3, #148]	; 0x94
     a7c:	f3bf 8f4f 	dsb	sy
     a80:	f3bf 8f6f 	isb	sy
     a84:	4770      	bx	lr
     a86:	bf00      	nop
     a88:	e000ed00 	.word	0xe000ed00

00000a8c <arm_core_mpu_disable>:
     a8c:	f3bf 8f5f 	dmb	sy
     a90:	4b02      	ldr	r3, [pc, #8]	; (a9c <arm_core_mpu_disable+0x10>)
     a92:	2200      	movs	r2, #0
     a94:	f8c3 2094 	str.w	r2, [r3, #148]	; 0x94
     a98:	4770      	bx	lr
     a9a:	bf00      	nop
     a9c:	e000ed00 	.word	0xe000ed00

00000aa0 <arm_core_mpu_configure_static_mpu_regions>:
     aa0:	b510      	push	{r4, lr}
     aa2:	4c03      	ldr	r4, [pc, #12]	; (ab0 <arm_core_mpu_configure_static_mpu_regions+0x10>)
     aa4:	2301      	movs	r3, #1
     aa6:	7822      	ldrb	r2, [r4, #0]
     aa8:	f7ff ffae 	bl	a08 <mpu_configure_regions>
     aac:	7020      	strb	r0, [r4, #0]
     aae:	bd10      	pop	{r4, pc}
     ab0:	20000824 	.word	0x20000824

00000ab4 <arm_core_mpu_configure_dynamic_mpu_regions>:
     ab4:	b508      	push	{r3, lr}
     ab6:	4a0b      	ldr	r2, [pc, #44]	; (ae4 <arm_core_mpu_configure_dynamic_mpu_regions+0x30>)
     ab8:	2300      	movs	r3, #0
     aba:	7812      	ldrb	r2, [r2, #0]
     abc:	f7ff ffa4 	bl	a08 <mpu_configure_regions>
     ac0:	f110 0f16 	cmn.w	r0, #22
     ac4:	d007      	beq.n	ad6 <arm_core_mpu_configure_dynamic_mpu_regions+0x22>
     ac6:	4a08      	ldr	r2, [pc, #32]	; (ae8 <arm_core_mpu_configure_dynamic_mpu_regions+0x34>)
     ac8:	2100      	movs	r1, #0
     aca:	f8d2 3090 	ldr.w	r3, [r2, #144]	; 0x90
     ace:	f3c3 2307 	ubfx	r3, r3, #8, #8
     ad2:	4298      	cmp	r0, r3
     ad4:	db00      	blt.n	ad8 <arm_core_mpu_configure_dynamic_mpu_regions+0x24>
     ad6:	bd08      	pop	{r3, pc}
     ad8:	f8c2 0098 	str.w	r0, [r2, #152]	; 0x98
     adc:	f8c2 10a0 	str.w	r1, [r2, #160]	; 0xa0
     ae0:	3001      	adds	r0, #1
     ae2:	e7f2      	b.n	aca <arm_core_mpu_configure_dynamic_mpu_regions+0x16>
     ae4:	20000824 	.word	0x20000824
     ae8:	e000ed00 	.word	0xe000ed00

00000aec <z_arm_mpu_init>:
     aec:	e92d 43f0 	stmdb	sp!, {r4, r5, r6, r7, r8, r9, lr}
     af0:	4b53      	ldr	r3, [pc, #332]	; (c40 <z_arm_mpu_init+0x154>)
     af2:	4c54      	ldr	r4, [pc, #336]	; (c44 <z_arm_mpu_init+0x158>)
     af4:	f8d3 3090 	ldr.w	r3, [r3, #144]	; 0x90
     af8:	6825      	ldr	r5, [r4, #0]
     afa:	f3c3 2307 	ubfx	r3, r3, #8, #8
     afe:	429d      	cmp	r5, r3
     b00:	b085      	sub	sp, #20
     b02:	f200 809a 	bhi.w	c3a <z_arm_mpu_init+0x14e>
     b06:	f7ff ffc1 	bl	a8c <arm_core_mpu_disable>
     b0a:	2000      	movs	r0, #0
     b0c:	260c      	movs	r6, #12
     b0e:	4285      	cmp	r5, r0
     b10:	d11a      	bne.n	b48 <z_arm_mpu_init+0x5c>
     b12:	4c4d      	ldr	r4, [pc, #308]	; (c48 <z_arm_mpu_init+0x15c>)
     b14:	4f4d      	ldr	r7, [pc, #308]	; (c4c <z_arm_mpu_init+0x160>)
     b16:	7025      	strb	r5, [r4, #0]
     b18:	4668      	mov	r0, sp
     b1a:	f7ff fc49 	bl	3b0 <mem_attr_get_regions>
     b1e:	f8df 8120 	ldr.w	r8, [pc, #288]	; c40 <z_arm_mpu_init+0x154>
     b22:	f8df 912c 	ldr.w	r9, [pc, #300]	; c50 <z_arm_mpu_init+0x164>
     b26:	4606      	mov	r6, r0
     b28:	2500      	movs	r5, #0
     b2a:	42ae      	cmp	r6, r5
     b2c:	d113      	bne.n	b56 <z_arm_mpu_init+0x6a>
     b2e:	7823      	ldrb	r3, [r4, #0]
     b30:	4943      	ldr	r1, [pc, #268]	; (c40 <z_arm_mpu_init+0x154>)
     b32:	2000      	movs	r0, #0
     b34:	f8d1 2090 	ldr.w	r2, [r1, #144]	; 0x90
     b38:	f3c2 2207 	ubfx	r2, r2, #8, #8
     b3c:	4293      	cmp	r3, r2
     b3e:	db76      	blt.n	c2e <z_arm_mpu_init+0x142>
     b40:	f7ff ff98 	bl	a74 <arm_core_mpu_enable>
     b44:	2000      	movs	r0, #0
     b46:	e042      	b.n	bce <z_arm_mpu_init+0xe2>
     b48:	6861      	ldr	r1, [r4, #4]
     b4a:	fb06 1100 	mla	r1, r6, r0, r1
     b4e:	f7ff ff47 	bl	9e0 <region_init>
     b52:	3001      	adds	r0, #1
     b54:	e7db      	b.n	b0e <z_arm_mpu_init+0x22>
     b56:	9800      	ldr	r0, [sp, #0]
     b58:	eb00 1105 	add.w	r1, r0, r5, lsl #4
     b5c:	ea4f 1c05 	mov.w	ip, r5, lsl #4
     b60:	68cb      	ldr	r3, [r1, #12]
     b62:	403b      	ands	r3, r7
     b64:	f5b3 0f00 	cmp.w	r3, #8388608	; 0x800000
     b68:	d048      	beq.n	bfc <z_arm_mpu_init+0x110>
     b6a:	d80a      	bhi.n	b82 <z_arm_mpu_init+0x96>
     b6c:	f5b3 1f00 	cmp.w	r3, #2097152	; 0x200000
     b70:	d030      	beq.n	bd4 <z_arm_mpu_init+0xe8>
     b72:	f5b3 0f80 	cmp.w	r3, #4194304	; 0x400000
     b76:	d036      	beq.n	be6 <z_arm_mpu_init+0xfa>
     b78:	f5b3 1f80 	cmp.w	r3, #1048576	; 0x100000
     b7c:	d010      	beq.n	ba0 <z_arm_mpu_init+0xb4>
     b7e:	3501      	adds	r5, #1
     b80:	e7d3      	b.n	b2a <z_arm_mpu_init+0x3e>
     b82:	f1b3 7f80 	cmp.w	r3, #16777216	; 0x1000000
     b86:	d042      	beq.n	c0e <z_arm_mpu_init+0x122>
     b88:	f1b3 7f00 	cmp.w	r3, #33554432	; 0x2000000
     b8c:	d1f7      	bne.n	b7e <z_arm_mpu_init+0x92>
     b8e:	f850 300c 	ldr.w	r3, [r0, ip]
     b92:	6888      	ldr	r0, [r1, #8]
     b94:	684a      	ldr	r2, [r1, #4]
     b96:	f003 f84e 	bl	3c36 <size_to_mpu_rasr_size>
     b9a:	f440 2080 	orr.w	r0, r0, #262144	; 0x40000
     b9e:	e009      	b.n	bb4 <z_arm_mpu_init+0xc8>
     ba0:	f850 300c 	ldr.w	r3, [r0, ip]
     ba4:	6888      	ldr	r0, [r1, #8]
     ba6:	684a      	ldr	r2, [r1, #4]
     ba8:	f003 f845 	bl	3c36 <size_to_mpu_rasr_size>
     bac:	f040 5088 	orr.w	r0, r0, #285212672	; 0x11000000
     bb0:	f440 2030 	orr.w	r0, r0, #720896	; 0xb0000
     bb4:	e9cd 2301 	strd	r2, r3, [sp, #4]
     bb8:	9003      	str	r0, [sp, #12]
     bba:	f8d8 3090 	ldr.w	r3, [r8, #144]	; 0x90
     bbe:	7820      	ldrb	r0, [r4, #0]
     bc0:	f3c3 2307 	ubfx	r3, r3, #8, #8
     bc4:	3b01      	subs	r3, #1
     bc6:	4298      	cmp	r0, r3
     bc8:	d92a      	bls.n	c20 <z_arm_mpu_init+0x134>
     bca:	f06f 0015 	mvn.w	r0, #21
     bce:	b005      	add	sp, #20
     bd0:	e8bd 83f0 	ldmia.w	sp!, {r4, r5, r6, r7, r8, r9, pc}
     bd4:	f850 300c 	ldr.w	r3, [r0, ip]
     bd8:	6888      	ldr	r0, [r1, #8]
     bda:	684a      	ldr	r2, [r1, #4]
     bdc:	f003 f82b 	bl	3c36 <size_to_mpu_rasr_size>
     be0:	ea40 0009 	orr.w	r0, r0, r9
     be4:	e7e6      	b.n	bb4 <z_arm_mpu_init+0xc8>
     be6:	f850 300c 	ldr.w	r3, [r0, ip]
     bea:	6888      	ldr	r0, [r1, #8]
     bec:	684a      	ldr	r2, [r1, #4]
     bee:	f003 f822 	bl	3c36 <size_to_mpu_rasr_size>
     bf2:	f040 60e0 	orr.w	r0, r0, #117440512	; 0x7000000
     bf6:	f440 3000 	orr.w	r0, r0, #131072	; 0x20000
     bfa:	e7db      	b.n	bb4 <z_arm_mpu_init+0xc8>
     bfc:	f850 300c 	ldr.w	r3, [r0, ip]
     c00:	6888      	ldr	r0, [r1, #8]
     c02:	684a      	ldr	r2, [r1, #4]
     c04:	f003 f817 	bl	3c36 <size_to_mpu_rasr_size>
     c08:	f040 7082 	orr.w	r0, r0, #17039360	; 0x1040000
     c0c:	e7d2      	b.n	bb4 <z_arm_mpu_init+0xc8>
     c0e:	f850 300c 	ldr.w	r3, [r0, ip]
     c12:	6888      	ldr	r0, [r1, #8]
     c14:	684a      	ldr	r2, [r1, #4]
     c16:	f003 f80e 	bl	3c36 <size_to_mpu_rasr_size>
     c1a:	f040 7088 	orr.w	r0, r0, #17825792	; 0x1100000
     c1e:	e7c9      	b.n	bb4 <z_arm_mpu_init+0xc8>
     c20:	a901      	add	r1, sp, #4
     c22:	f7ff fedd 	bl	9e0 <region_init>
     c26:	7823      	ldrb	r3, [r4, #0]
     c28:	3301      	adds	r3, #1
     c2a:	7023      	strb	r3, [r4, #0]
     c2c:	e7a7      	b.n	b7e <z_arm_mpu_init+0x92>
     c2e:	f8c1 3098 	str.w	r3, [r1, #152]	; 0x98
     c32:	f8c1 00a0 	str.w	r0, [r1, #160]	; 0xa0
     c36:	3301      	adds	r3, #1
     c38:	e77c      	b.n	b34 <z_arm_mpu_init+0x48>
     c3a:	f04f 30ff 	mov.w	r0, #4294967295	; 0xffffffff
     c3e:	e7c6      	b.n	bce <z_arm_mpu_init+0xe2>
     c40:	e000ed00 	.word	0xe000ed00
     c44:	000045b4 	.word	0x000045b4
     c48:	20000824 	.word	0x20000824
     c4c:	fff00000 	.word	0xfff00000
     c50:	11080000 	.word	0x11080000

00000c54 <z_impl_zephyr_fputc>:
     c54:	b508      	push	{r3, lr}
     c56:	4b02      	ldr	r3, [pc, #8]	; (c60 <z_impl_zephyr_fputc+0xc>)
     c58:	681b      	ldr	r3, [r3, #0]
     c5a:	4798      	blx	r3
     c5c:	2000      	movs	r0, #0
     c5e:	bd08      	pop	{r3, pc}
     c60:	20000750 	.word	0x20000750

00000c64 <__stdout_hook_install>:
     c64:	4b03      	ldr	r3, [pc, #12]	; (c74 <__stdout_hook_install+0x10>)
     c66:	4a04      	ldr	r2, [pc, #16]	; (c78 <__stdout_hook_install+0x14>)
     c68:	6018      	str	r0, [r3, #0]
     c6a:	7893      	ldrb	r3, [r2, #2]
     c6c:	f043 0302 	orr.w	r3, r3, #2
     c70:	7093      	strb	r3, [r2, #2]
     c72:	4770      	bx	lr
     c74:	20000750 	.word	0x20000750
     c78:	200004c4 	.word	0x200004c4

00000c7c <malloc_prepare>:
     c7c:	b508      	push	{r3, lr}
     c7e:	4906      	ldr	r1, [pc, #24]	; (c98 <malloc_prepare+0x1c>)
     c80:	4806      	ldr	r0, [pc, #24]	; (c9c <malloc_prepare+0x20>)
     c82:	f021 0107 	bic.w	r1, r1, #7
     c86:	f1c1 5200 	rsb	r2, r1, #536870912	; 0x20000000
     c8a:	f502 2280 	add.w	r2, r2, #262144	; 0x40000
     c8e:	f002 fe76 	bl	397e <sys_heap_init>
     c92:	2000      	movs	r0, #0
     c94:	bd08      	pop	{r3, pc}
     c96:	bf00      	nop
     c98:	20001647 	.word	0x20001647
     c9c:	20000754 	.word	0x20000754

00000ca0 <nordicsemi_nrf52_init>:
     ca0:	4a0d      	ldr	r2, [pc, #52]	; (cd8 <nordicsemi_nrf52_init+0x38>)
     ca2:	2301      	movs	r3, #1
     ca4:	f8c2 3540 	str.w	r3, [r2, #1344]	; 0x540
     ca8:	f04f 5280 	mov.w	r2, #268435456	; 0x10000000
     cac:	f8d2 1130 	ldr.w	r1, [r2, #304]	; 0x130
     cb0:	2908      	cmp	r1, #8
     cb2:	d10a      	bne.n	cca <nordicsemi_nrf52_init+0x2a>
     cb4:	f8d2 2134 	ldr.w	r2, [r2, #308]	; 0x134
     cb8:	2a05      	cmp	r2, #5
     cba:	d806      	bhi.n	cca <nordicsemi_nrf52_init+0x2a>
     cbc:	4907      	ldr	r1, [pc, #28]	; (cdc <nordicsemi_nrf52_init+0x3c>)
     cbe:	5c8a      	ldrb	r2, [r1, r2]
     cc0:	b11a      	cbz	r2, cca <nordicsemi_nrf52_init+0x2a>
     cc2:	f04f 4280 	mov.w	r2, #1073741824	; 0x40000000
     cc6:	f8c2 3638 	str.w	r3, [r2, #1592]	; 0x638
     cca:	f04f 4380 	mov.w	r3, #1073741824	; 0x40000000
     cce:	2201      	movs	r2, #1
     cd0:	f8c3 2580 	str.w	r2, [r3, #1408]	; 0x580
     cd4:	2000      	movs	r0, #0
     cd6:	4770      	bx	lr
     cd8:	4001e000 	.word	0x4001e000
     cdc:	000046fc 	.word	0x000046fc

00000ce0 <arch_busy_wait>:
     ce0:	b120      	cbz	r0, cec <arch_busy_wait+0xc>
     ce2:	4b03      	ldr	r3, [pc, #12]	; (cf0 <arch_busy_wait+0x10>)
     ce4:	0180      	lsls	r0, r0, #6
     ce6:	f043 0301 	orr.w	r3, r3, #1
     cea:	4718      	bx	r3
     cec:	4770      	bx	lr
     cee:	bf00      	nop
     cf0:	000045a0 	.word	0x000045a0

00000cf4 <onoff_stop>:
     cf4:	4b08      	ldr	r3, [pc, #32]	; (d18 <onoff_stop+0x24>)
     cf6:	b570      	push	{r4, r5, r6, lr}
     cf8:	1ac3      	subs	r3, r0, r3
     cfa:	460d      	mov	r5, r1
     cfc:	4907      	ldr	r1, [pc, #28]	; (d1c <onoff_stop+0x28>)
     cfe:	109b      	asrs	r3, r3, #2
     d00:	4604      	mov	r4, r0
     d02:	4359      	muls	r1, r3
     d04:	4806      	ldr	r0, [pc, #24]	; (d20 <onoff_stop+0x2c>)
     d06:	2240      	movs	r2, #64	; 0x40
     d08:	f002 ffb3 	bl	3c72 <stop>
     d0c:	462b      	mov	r3, r5
     d0e:	4601      	mov	r1, r0
     d10:	4620      	mov	r0, r4
     d12:	e8bd 4070 	ldmia.w	sp!, {r4, r5, r6, lr}
     d16:	4718      	bx	r3
     d18:	20000774 	.word	0x20000774
     d1c:	b6db6db7 	.word	0xb6db6db7
     d20:	000043c8 	.word	0x000043c8

00000d24 <onoff_start>:
     d24:	b573      	push	{r0, r1, r4, r5, r6, lr}
     d26:	4c0c      	ldr	r4, [pc, #48]	; (d58 <onoff_start+0x34>)
     d28:	4a0c      	ldr	r2, [pc, #48]	; (d5c <onoff_start+0x38>)
     d2a:	2340      	movs	r3, #64	; 0x40
     d2c:	1b04      	subs	r4, r0, r4
     d2e:	9300      	str	r3, [sp, #0]
     d30:	460d      	mov	r5, r1
     d32:	460b      	mov	r3, r1
     d34:	490a      	ldr	r1, [pc, #40]	; (d60 <onoff_start+0x3c>)
     d36:	10a4      	asrs	r4, r4, #2
     d38:	4361      	muls	r1, r4
     d3a:	4606      	mov	r6, r0
     d3c:	4809      	ldr	r0, [pc, #36]	; (d64 <onoff_start+0x40>)
     d3e:	f002 ffc4 	bl	3cca <async_start>
     d42:	1e01      	subs	r1, r0, #0
     d44:	da05      	bge.n	d52 <onoff_start+0x2e>
     d46:	4630      	mov	r0, r6
     d48:	462b      	mov	r3, r5
     d4a:	b002      	add	sp, #8
     d4c:	e8bd 4070 	ldmia.w	sp!, {r4, r5, r6, lr}
     d50:	4718      	bx	r3
     d52:	b002      	add	sp, #8
     d54:	bd70      	pop	{r4, r5, r6, pc}
     d56:	bf00      	nop
     d58:	20000774 	.word	0x20000774
     d5c:	00003d35 	.word	0x00003d35
     d60:	b6db6db7 	.word	0xb6db6db7
     d64:	000043c8 	.word	0x000043c8

00000d68 <generic_hfclk_stop>:
     d68:	b510      	push	{r4, lr}
     d6a:	f3ef 8411 	mrs	r4, BASEPRI
     d6e:	2320      	movs	r3, #32
     d70:	f383 8812 	msr	BASEPRI_MAX, r3
     d74:	f3bf 8f6f 	isb	sy
     d78:	4a07      	ldr	r2, [pc, #28]	; (d98 <generic_hfclk_stop+0x30>)
     d7a:	6813      	ldr	r3, [r2, #0]
     d7c:	f023 0102 	bic.w	r1, r3, #2
     d80:	07db      	lsls	r3, r3, #31
     d82:	6011      	str	r1, [r2, #0]
     d84:	d402      	bmi.n	d8c <generic_hfclk_stop+0x24>
     d86:	2001      	movs	r0, #1
     d88:	f003 f8c9 	bl	3f1e <nrfx_clock_stop>
     d8c:	f384 8811 	msr	BASEPRI, r4
     d90:	f3bf 8f6f 	isb	sy
     d94:	bd10      	pop	{r4, pc}
     d96:	bf00      	nop
     d98:	200007c4 	.word	0x200007c4

00000d9c <clk_init>:
     d9c:	2200      	movs	r2, #0
     d9e:	b570      	push	{r4, r5, r6, lr}
     da0:	2101      	movs	r1, #1
     da2:	4604      	mov	r4, r0
     da4:	4610      	mov	r0, r2
     da6:	f7ff fd4b 	bl	840 <z_arm_irq_priority_set>
     daa:	480f      	ldr	r0, [pc, #60]	; (de8 <clk_init+0x4c>)
     dac:	f001 f856 	bl	1e5c <nrfx_clock_init>
     db0:	4b0e      	ldr	r3, [pc, #56]	; (dec <clk_init+0x50>)
     db2:	4298      	cmp	r0, r3
     db4:	d115      	bne.n	de2 <clk_init+0x46>
     db6:	f001 f861 	bl	1e7c <nrfx_clock_enable>
     dba:	6926      	ldr	r6, [r4, #16]
     dbc:	490c      	ldr	r1, [pc, #48]	; (df0 <clk_init+0x54>)
     dbe:	4630      	mov	r0, r6
     dc0:	f002 fe78 	bl	3ab4 <onoff_manager_init>
     dc4:	2800      	cmp	r0, #0
     dc6:	db0b      	blt.n	de0 <clk_init+0x44>
     dc8:	2501      	movs	r5, #1
     dca:	6435      	str	r5, [r6, #64]	; 0x40
     dcc:	6924      	ldr	r4, [r4, #16]
     dce:	4908      	ldr	r1, [pc, #32]	; (df0 <clk_init+0x54>)
     dd0:	f104 001c 	add.w	r0, r4, #28
     dd4:	f002 fe6e 	bl	3ab4 <onoff_manager_init>
     dd8:	2800      	cmp	r0, #0
     dda:	db01      	blt.n	de0 <clk_init+0x44>
     ddc:	64e5      	str	r5, [r4, #76]	; 0x4c
     dde:	2000      	movs	r0, #0
     de0:	bd70      	pop	{r4, r5, r6, pc}
     de2:	f06f 0004 	mvn.w	r0, #4
     de6:	e7fb      	b.n	de0 <clk_init+0x44>
     de8:	00000eed 	.word	0x00000eed
     dec:	0bad0000 	.word	0x0bad0000
     df0:	000045d8 	.word	0x000045d8

00000df4 <api_blocking_start>:
     df4:	b51f      	push	{r0, r1, r2, r3, r4, lr}
     df6:	2200      	movs	r2, #0
     df8:	2301      	movs	r3, #1
     dfa:	e9cd 2302 	strd	r2, r3, [sp, #8]
     dfe:	4a09      	ldr	r2, [pc, #36]	; (e24 <api_blocking_start+0x30>)
     e00:	f8cd d000 	str.w	sp, [sp]
     e04:	466b      	mov	r3, sp
     e06:	f8cd d004 	str.w	sp, [sp, #4]
     e0a:	f002 ff8c 	bl	3d26 <api_start>
     e0e:	2800      	cmp	r0, #0
     e10:	db05      	blt.n	e1e <api_blocking_start+0x2a>
     e12:	f44f 4280 	mov.w	r2, #16384	; 0x4000
     e16:	2300      	movs	r3, #0
     e18:	4668      	mov	r0, sp
     e1a:	f001 fe59 	bl	2ad0 <z_impl_k_sem_take>
     e1e:	b005      	add	sp, #20
     e20:	f85d fb04 	ldr.w	pc, [sp], #4
     e24:	00003d53 	.word	0x00003d53

00000e28 <clkstarted_handle.constprop.0>:
     e28:	b430      	push	{r4, r5}
     e2a:	4b10      	ldr	r3, [pc, #64]	; (e6c <clkstarted_handle.constprop.0+0x44>)
     e2c:	220c      	movs	r2, #12
     e2e:	fb02 3300 	mla	r3, r2, r0, r3
     e32:	4601      	mov	r1, r0
     e34:	2000      	movs	r0, #0
     e36:	e9d3 520e 	ldrd	r5, r2, [r3, #56]	; 0x38
     e3a:	6398      	str	r0, [r3, #56]	; 0x38
     e3c:	f3ef 8011 	mrs	r0, BASEPRI
     e40:	2420      	movs	r4, #32
     e42:	f384 8812 	msr	BASEPRI_MAX, r4
     e46:	f3bf 8f6f 	isb	sy
     e4a:	6c1c      	ldr	r4, [r3, #64]	; 0x40
     e4c:	f004 04c0 	and.w	r4, r4, #192	; 0xc0
     e50:	f044 0402 	orr.w	r4, r4, #2
     e54:	641c      	str	r4, [r3, #64]	; 0x40
     e56:	f380 8811 	msr	BASEPRI, r0
     e5a:	f3bf 8f6f 	isb	sy
     e5e:	b11d      	cbz	r5, e68 <clkstarted_handle.constprop.0+0x40>
     e60:	462b      	mov	r3, r5
     e62:	4803      	ldr	r0, [pc, #12]	; (e70 <clkstarted_handle.constprop.0+0x48>)
     e64:	bc30      	pop	{r4, r5}
     e66:	4718      	bx	r3
     e68:	bc30      	pop	{r4, r5}
     e6a:	4770      	bx	lr
     e6c:	20000774 	.word	0x20000774
     e70:	000043c8 	.word	0x000043c8

00000e74 <generic_hfclk_start>:
     e74:	b410      	push	{r4}
     e76:	f3ef 8211 	mrs	r2, BASEPRI
     e7a:	2320      	movs	r3, #32
     e7c:	f383 8812 	msr	BASEPRI_MAX, r3
     e80:	f3bf 8f6f 	isb	sy
     e84:	4817      	ldr	r0, [pc, #92]	; (ee4 <generic_hfclk_start+0x70>)
     e86:	6801      	ldr	r1, [r0, #0]
     e88:	f041 0402 	orr.w	r4, r1, #2
     e8c:	6004      	str	r4, [r0, #0]
     e8e:	07c8      	lsls	r0, r1, #31
     e90:	d407      	bmi.n	ea2 <generic_hfclk_start+0x2e>
     e92:	f382 8811 	msr	BASEPRI, r2
     e96:	f3bf 8f6f 	isb	sy
     e9a:	2001      	movs	r0, #1
     e9c:	bc10      	pop	{r4}
     e9e:	f000 bfff 	b.w	1ea0 <nrfx_clock_start>
     ea2:	f04f 4180 	mov.w	r1, #1073741824	; 0x40000000
     ea6:	f8d1 040c 	ldr.w	r0, [r1, #1036]	; 0x40c
     eaa:	f8d1 140c 	ldr.w	r1, [r1, #1036]	; 0x40c
     eae:	07c9      	lsls	r1, r1, #31
     eb0:	d5ef      	bpl.n	e92 <generic_hfclk_start+0x1e>
     eb2:	f3ef 8011 	mrs	r0, BASEPRI
     eb6:	f383 8812 	msr	BASEPRI_MAX, r3
     eba:	f3bf 8f6f 	isb	sy
     ebe:	490a      	ldr	r1, [pc, #40]	; (ee8 <generic_hfclk_start+0x74>)
     ec0:	6c0b      	ldr	r3, [r1, #64]	; 0x40
     ec2:	f003 03c0 	and.w	r3, r3, #192	; 0xc0
     ec6:	f043 0302 	orr.w	r3, r3, #2
     eca:	640b      	str	r3, [r1, #64]	; 0x40
     ecc:	f380 8811 	msr	BASEPRI, r0
     ed0:	f3bf 8f6f 	isb	sy
     ed4:	f382 8811 	msr	BASEPRI, r2
     ed8:	f3bf 8f6f 	isb	sy
     edc:	2000      	movs	r0, #0
     ede:	bc10      	pop	{r4}
     ee0:	f7ff bfa2 	b.w	e28 <clkstarted_handle.constprop.0>
     ee4:	200007c4 	.word	0x200007c4
     ee8:	20000774 	.word	0x20000774

00000eec <clock_event_handler>:
     eec:	b110      	cbz	r0, ef4 <clock_event_handler+0x8>
     eee:	2801      	cmp	r0, #1
     ef0:	d004      	beq.n	efc <clock_event_handler+0x10>
     ef2:	4770      	bx	lr
     ef4:	4b03      	ldr	r3, [pc, #12]	; (f04 <clock_event_handler+0x18>)
     ef6:	6c1b      	ldr	r3, [r3, #64]	; 0x40
     ef8:	075b      	lsls	r3, r3, #29
     efa:	d101      	bne.n	f00 <clock_event_handler+0x14>
     efc:	f7ff bf94 	b.w	e28 <clkstarted_handle.constprop.0>
     f00:	4770      	bx	lr
     f02:	bf00      	nop
     f04:	20000774 	.word	0x20000774

00000f08 <z_nrf_clock_control_lf_on>:
     f08:	e92d 41f0 	stmdb	sp!, {r4, r5, r6, r7, r8, lr}
     f0c:	4938      	ldr	r1, [pc, #224]	; (ff0 <z_nrf_clock_control_lf_on+0xe8>)
     f0e:	f3bf 8f5b 	dmb	ish
     f12:	4607      	mov	r7, r0
     f14:	2201      	movs	r2, #1
     f16:	e851 3f00 	ldrex	r3, [r1]
     f1a:	e841 2000 	strex	r0, r2, [r1]
     f1e:	2800      	cmp	r0, #0
     f20:	d1f9      	bne.n	f16 <z_nrf_clock_control_lf_on+0xe>
     f22:	f3bf 8f5b 	dmb	ish
     f26:	b933      	cbnz	r3, f36 <z_nrf_clock_control_lf_on+0x2e>
     f28:	4932      	ldr	r1, [pc, #200]	; (ff4 <z_nrf_clock_control_lf_on+0xec>)
     f2a:	4833      	ldr	r0, [pc, #204]	; (ff8 <z_nrf_clock_control_lf_on+0xf0>)
     f2c:	604b      	str	r3, [r1, #4]
     f2e:	60cb      	str	r3, [r1, #12]
     f30:	608a      	str	r2, [r1, #8]
     f32:	f002 fdd2 	bl	3ada <onoff_request>
     f36:	1e7b      	subs	r3, r7, #1
     f38:	2b01      	cmp	r3, #1
     f3a:	d82b      	bhi.n	f94 <z_nrf_clock_control_lf_on+0x8c>
     f3c:	2f01      	cmp	r7, #1
     f3e:	d107      	bne.n	f50 <z_nrf_clock_control_lf_on+0x48>
     f40:	f04f 4380 	mov.w	r3, #1073741824	; 0x40000000
     f44:	f8d3 341c 	ldr.w	r3, [r3, #1052]	; 0x41c
     f48:	f003 0303 	and.w	r3, r3, #3
     f4c:	2b01      	cmp	r3, #1
     f4e:	d021      	beq.n	f94 <z_nrf_clock_control_lf_on+0x8c>
     f50:	f003 f8b1 	bl	40b6 <k_is_in_isr>
     f54:	4605      	mov	r5, r0
     f56:	b9f8      	cbnz	r0, f98 <z_nrf_clock_control_lf_on+0x90>
     f58:	4b28      	ldr	r3, [pc, #160]	; (ffc <z_nrf_clock_control_lf_on+0xf4>)
     f5a:	781b      	ldrb	r3, [r3, #0]
     f5c:	b1e3      	cbz	r3, f98 <z_nrf_clock_control_lf_on+0x90>
     f5e:	f04f 4380 	mov.w	r3, #1073741824	; 0x40000000
     f62:	2202      	movs	r2, #2
     f64:	f8c3 2308 	str.w	r2, [r3, #776]	; 0x308
     f68:	4606      	mov	r6, r0
     f6a:	f8df 8094 	ldr.w	r8, [pc, #148]	; 1000 <z_nrf_clock_control_lf_on+0xf8>
     f6e:	f04f 4480 	mov.w	r4, #1073741824	; 0x40000000
     f72:	f8d4 2418 	ldr.w	r2, [r4, #1048]	; 0x418
     f76:	f8d4 3418 	ldr.w	r3, [r4, #1048]	; 0x418
     f7a:	03d2      	lsls	r2, r2, #15
     f7c:	d515      	bpl.n	faa <z_nrf_clock_control_lf_on+0xa2>
     f7e:	f003 0303 	and.w	r3, r3, #3
     f82:	2b01      	cmp	r3, #1
     f84:	d001      	beq.n	f8a <z_nrf_clock_control_lf_on+0x82>
     f86:	2f01      	cmp	r7, #1
     f88:	d10f      	bne.n	faa <z_nrf_clock_control_lf_on+0xa2>
     f8a:	b355      	cbz	r5, fe2 <z_nrf_clock_control_lf_on+0xda>
     f8c:	f386 8811 	msr	BASEPRI, r6
     f90:	f3bf 8f6f 	isb	sy
     f94:	e8bd 81f0 	ldmia.w	sp!, {r4, r5, r6, r7, r8, pc}
     f98:	f3ef 8611 	mrs	r6, BASEPRI
     f9c:	2320      	movs	r3, #32
     f9e:	f383 8812 	msr	BASEPRI_MAX, r3
     fa2:	f3bf 8f6f 	isb	sy
     fa6:	2501      	movs	r5, #1
     fa8:	e7df      	b.n	f6a <z_nrf_clock_control_lf_on+0x62>
     faa:	b1ad      	cbz	r5, fd8 <z_nrf_clock_control_lf_on+0xd0>
     fac:	4630      	mov	r0, r6
     fae:	f002 fe33 	bl	3c18 <arch_cpu_atomic_idle>
     fb2:	f8d4 3518 	ldr.w	r3, [r4, #1304]	; 0x518
     fb6:	2b00      	cmp	r3, #0
     fb8:	d1db      	bne.n	f72 <z_nrf_clock_control_lf_on+0x6a>
     fba:	f8d4 2104 	ldr.w	r2, [r4, #260]	; 0x104
     fbe:	2a00      	cmp	r2, #0
     fc0:	d0d7      	beq.n	f72 <z_nrf_clock_control_lf_on+0x6a>
     fc2:	f8c4 3104 	str.w	r3, [r4, #260]	; 0x104
     fc6:	f8d4 3104 	ldr.w	r3, [r4, #260]	; 0x104
     fca:	2301      	movs	r3, #1
     fcc:	f8c4 3518 	str.w	r3, [r4, #1304]	; 0x518
     fd0:	f8c8 3180 	str.w	r3, [r8, #384]	; 0x180
     fd4:	60a3      	str	r3, [r4, #8]
     fd6:	e7cc      	b.n	f72 <z_nrf_clock_control_lf_on+0x6a>
     fd8:	2100      	movs	r1, #0
     fda:	2021      	movs	r0, #33	; 0x21
     fdc:	f002 f82a 	bl	3034 <z_impl_k_sleep>
     fe0:	e7e7      	b.n	fb2 <z_nrf_clock_control_lf_on+0xaa>
     fe2:	f04f 4380 	mov.w	r3, #1073741824	; 0x40000000
     fe6:	2202      	movs	r2, #2
     fe8:	f8c3 2304 	str.w	r2, [r3, #772]	; 0x304
     fec:	e7d2      	b.n	f94 <z_nrf_clock_control_lf_on+0x8c>
     fee:	bf00      	nop
     ff0:	20000770 	.word	0x20000770
     ff4:	20000760 	.word	0x20000760
     ff8:	20000790 	.word	0x20000790
     ffc:	20000827 	.word	0x20000827
    1000:	e000e100 	.word	0xe000e100

00001004 <uart_console_init>:
    1004:	b508      	push	{r3, lr}
    1006:	4807      	ldr	r0, [pc, #28]	; (1024 <uart_console_init+0x20>)
    1008:	f003 f817 	bl	403a <z_impl_device_is_ready>
    100c:	b138      	cbz	r0, 101e <uart_console_init+0x1a>
    100e:	4806      	ldr	r0, [pc, #24]	; (1028 <uart_console_init+0x24>)
    1010:	f7ff fe28 	bl	c64 <__stdout_hook_install>
    1014:	4804      	ldr	r0, [pc, #16]	; (1028 <uart_console_init+0x24>)
    1016:	f7ff f885 	bl	124 <__printk_hook_install>
    101a:	2000      	movs	r0, #0
    101c:	bd08      	pop	{r3, pc}
    101e:	f06f 0012 	mvn.w	r0, #18
    1022:	e7fb      	b.n	101c <uart_console_init+0x18>
    1024:	00004404 	.word	0x00004404
    1028:	0000102d 	.word	0x0000102d

0000102c <console_out>:
    102c:	280a      	cmp	r0, #10
    102e:	b538      	push	{r3, r4, r5, lr}
    1030:	4d07      	ldr	r5, [pc, #28]	; (1050 <console_out+0x24>)
    1032:	4604      	mov	r4, r0
    1034:	d104      	bne.n	1040 <console_out+0x14>
    1036:	68ab      	ldr	r3, [r5, #8]
    1038:	210d      	movs	r1, #13
    103a:	685b      	ldr	r3, [r3, #4]
    103c:	4628      	mov	r0, r5
    103e:	4798      	blx	r3
    1040:	68ab      	ldr	r3, [r5, #8]
    1042:	4803      	ldr	r0, [pc, #12]	; (1050 <console_out+0x24>)
    1044:	685b      	ldr	r3, [r3, #4]
    1046:	b2e1      	uxtb	r1, r4
    1048:	4798      	blx	r3
    104a:	4620      	mov	r0, r4
    104c:	bd38      	pop	{r3, r4, r5, pc}
    104e:	bf00      	nop
    1050:	00004404 	.word	0x00004404

00001054 <gpio_nrfx_pin_interrupt_configure>:
    1054:	b5f0      	push	{r4, r5, r6, r7, lr}
    1056:	6840      	ldr	r0, [r0, #4]
    1058:	7b05      	ldrb	r5, [r0, #12]
    105a:	f001 041f 	and.w	r4, r1, #31
    105e:	ea44 1445 	orr.w	r4, r4, r5, lsl #5
    1062:	6905      	ldr	r5, [r0, #16]
    1064:	b087      	sub	sp, #28
    1066:	2d00      	cmp	r5, #0
    1068:	d064      	beq.n	1134 <gpio_nrfx_pin_interrupt_configure+0xe0>
    106a:	f5b2 1f00 	cmp.w	r2, #2097152	; 0x200000
    106e:	f100 0510 	add.w	r5, r0, #16
    1072:	d106      	bne.n	1082 <gpio_nrfx_pin_interrupt_configure+0x2e>
    1074:	4621      	mov	r1, r4
    1076:	4628      	mov	r0, r5
    1078:	f002 ffd1 	bl	401e <nrfx_gpiote_trigger_disable>
    107c:	2000      	movs	r0, #0
    107e:	b007      	add	sp, #28
    1080:	bdf0      	pop	{r4, r5, r6, r7, pc}
    1082:	ae01      	add	r6, sp, #4
    1084:	2700      	movs	r7, #0
    1086:	f5b2 0f80 	cmp.w	r2, #4194304	; 0x400000
    108a:	9701      	str	r7, [sp, #4]
    108c:	6077      	str	r7, [r6, #4]
    108e:	d139      	bne.n	1104 <gpio_nrfx_pin_interrupt_configure+0xb0>
    1090:	f1b3 7f00 	cmp.w	r3, #33554432	; 0x2000000
    1094:	bf14      	ite	ne
    1096:	2305      	movne	r3, #5
    1098:	2304      	moveq	r3, #4
    109a:	f88d 3004 	strb.w	r3, [sp, #4]
    109e:	2300      	movs	r3, #0
    10a0:	e9cd 6304 	strd	r6, r3, [sp, #16]
    10a4:	9303      	str	r3, [sp, #12]
    10a6:	6883      	ldr	r3, [r0, #8]
    10a8:	fa23 f101 	lsr.w	r1, r3, r1
    10ac:	f011 0101 	ands.w	r1, r1, #1
    10b0:	d11a      	bne.n	10e8 <gpio_nrfx_pin_interrupt_configure+0x94>
    10b2:	f1b2 7fa0 	cmp.w	r2, #20971520	; 0x1400000
    10b6:	d117      	bne.n	10e8 <gpio_nrfx_pin_interrupt_configure+0x94>
    10b8:	f004 031f 	and.w	r3, r4, #31
    10bc:	0962      	lsrs	r2, r4, #5
    10be:	f503 73e0 	add.w	r3, r3, #448	; 0x1c0
    10c2:	d02a      	beq.n	111a <gpio_nrfx_pin_interrupt_configure+0xc6>
    10c4:	2a01      	cmp	r2, #1
    10c6:	d13b      	bne.n	1140 <gpio_nrfx_pin_interrupt_configure+0xec>
    10c8:	4a1f      	ldr	r2, [pc, #124]	; (1148 <gpio_nrfx_pin_interrupt_configure+0xf4>)
    10ca:	f852 3023 	ldr.w	r3, [r2, r3, lsl #2]
    10ce:	07db      	lsls	r3, r3, #31
    10d0:	d40a      	bmi.n	10e8 <gpio_nrfx_pin_interrupt_configure+0x94>
    10d2:	f10d 0603 	add.w	r6, sp, #3
    10d6:	4632      	mov	r2, r6
    10d8:	4621      	mov	r1, r4
    10da:	4628      	mov	r0, r5
    10dc:	f001 f9be 	bl	245c <nrfx_gpiote_channel_get>
    10e0:	4b1a      	ldr	r3, [pc, #104]	; (114c <gpio_nrfx_pin_interrupt_configure+0xf8>)
    10e2:	4298      	cmp	r0, r3
    10e4:	d01c      	beq.n	1120 <gpio_nrfx_pin_interrupt_configure+0xcc>
    10e6:	9602      	str	r6, [sp, #8]
    10e8:	aa03      	add	r2, sp, #12
    10ea:	4621      	mov	r1, r4
    10ec:	4628      	mov	r0, r5
    10ee:	f001 f877 	bl	21e0 <nrfx_gpiote_input_configure>
    10f2:	4b17      	ldr	r3, [pc, #92]	; (1150 <gpio_nrfx_pin_interrupt_configure+0xfc>)
    10f4:	4298      	cmp	r0, r3
    10f6:	d120      	bne.n	113a <gpio_nrfx_pin_interrupt_configure+0xe6>
    10f8:	2201      	movs	r2, #1
    10fa:	4621      	mov	r1, r4
    10fc:	4628      	mov	r0, r5
    10fe:	f001 fa11 	bl	2524 <nrfx_gpiote_trigger_enable>
    1102:	e7bb      	b.n	107c <gpio_nrfx_pin_interrupt_configure+0x28>
    1104:	f1b3 6fc0 	cmp.w	r3, #100663296	; 0x6000000
    1108:	d005      	beq.n	1116 <gpio_nrfx_pin_interrupt_configure+0xc2>
    110a:	f1b3 7f00 	cmp.w	r3, #33554432	; 0x2000000
    110e:	bf14      	ite	ne
    1110:	2301      	movne	r3, #1
    1112:	2302      	moveq	r3, #2
    1114:	e7c1      	b.n	109a <gpio_nrfx_pin_interrupt_configure+0x46>
    1116:	2303      	movs	r3, #3
    1118:	e7bf      	b.n	109a <gpio_nrfx_pin_interrupt_configure+0x46>
    111a:	f04f 42a0 	mov.w	r2, #1342177280	; 0x50000000
    111e:	e7d4      	b.n	10ca <gpio_nrfx_pin_interrupt_configure+0x76>
    1120:	4631      	mov	r1, r6
    1122:	4628      	mov	r0, r5
    1124:	f001 f9f8 	bl	2518 <nrfx_gpiote_channel_alloc>
    1128:	4b09      	ldr	r3, [pc, #36]	; (1150 <gpio_nrfx_pin_interrupt_configure+0xfc>)
    112a:	4298      	cmp	r0, r3
    112c:	d0db      	beq.n	10e6 <gpio_nrfx_pin_interrupt_configure+0x92>
    112e:	f06f 000b 	mvn.w	r0, #11
    1132:	e7a4      	b.n	107e <gpio_nrfx_pin_interrupt_configure+0x2a>
    1134:	f06f 0085 	mvn.w	r0, #133	; 0x85
    1138:	e7a1      	b.n	107e <gpio_nrfx_pin_interrupt_configure+0x2a>
    113a:	f06f 0015 	mvn.w	r0, #21
    113e:	e79e      	b.n	107e <gpio_nrfx_pin_interrupt_configure+0x2a>
    1140:	f851 3023 	ldr.w	r3, [r1, r3, lsl #2]
    1144:	deff      	udf	#255	; 0xff
    1146:	bf00      	nop
    1148:	50000300 	.word	0x50000300
    114c:	0bad0004 	.word	0x0bad0004
    1150:	0bad0000 	.word	0x0bad0000

00001154 <gpio_nrfx_init>:
    1154:	b538      	push	{r3, r4, r5, lr}
    1156:	6845      	ldr	r5, [r0, #4]
    1158:	692b      	ldr	r3, [r5, #16]
    115a:	b1b3      	cbz	r3, 118a <gpio_nrfx_init+0x36>
    115c:	3510      	adds	r5, #16
    115e:	4628      	mov	r0, r5
    1160:	f001 f9ca 	bl	24f8 <nrfx_gpiote_init_check>
    1164:	4604      	mov	r4, r0
    1166:	b980      	cbnz	r0, 118a <gpio_nrfx_init+0x36>
    1168:	4601      	mov	r1, r0
    116a:	4628      	mov	r0, r5
    116c:	f001 f990 	bl	2490 <nrfx_gpiote_init>
    1170:	4b08      	ldr	r3, [pc, #32]	; (1194 <gpio_nrfx_init+0x40>)
    1172:	4298      	cmp	r0, r3
    1174:	d10b      	bne.n	118e <gpio_nrfx_init+0x3a>
    1176:	4908      	ldr	r1, [pc, #32]	; (1198 <gpio_nrfx_init+0x44>)
    1178:	4622      	mov	r2, r4
    117a:	4628      	mov	r0, r5
    117c:	f001 f968 	bl	2450 <nrfx_gpiote_global_callback_set>
    1180:	4622      	mov	r2, r4
    1182:	2105      	movs	r1, #5
    1184:	2006      	movs	r0, #6
    1186:	f7ff fb5b 	bl	840 <z_arm_irq_priority_set>
    118a:	2000      	movs	r0, #0
    118c:	bd38      	pop	{r3, r4, r5, pc}
    118e:	f06f 0004 	mvn.w	r0, #4
    1192:	e7fb      	b.n	118c <gpio_nrfx_init+0x38>
    1194:	0bad0000 	.word	0x0bad0000
    1198:	0000119d 	.word	0x0000119d

0000119c <nrfx_gpio_handler>:
    119c:	0942      	lsrs	r2, r0, #5
    119e:	b570      	push	{r4, r5, r6, lr}
    11a0:	4603      	mov	r3, r0
    11a2:	d002      	beq.n	11aa <nrfx_gpio_handler+0xe>
    11a4:	2a01      	cmp	r2, #1
    11a6:	d017      	beq.n	11d8 <nrfx_gpio_handler+0x3c>
    11a8:	bd70      	pop	{r4, r5, r6, pc}
    11aa:	4e0d      	ldr	r6, [pc, #52]	; (11e0 <nrfx_gpio_handler+0x44>)
    11ac:	6932      	ldr	r2, [r6, #16]
    11ae:	6851      	ldr	r1, [r2, #4]
    11b0:	2900      	cmp	r1, #0
    11b2:	d0f9      	beq.n	11a8 <nrfx_gpio_handler+0xc>
    11b4:	f003 031f 	and.w	r3, r3, #31
    11b8:	2501      	movs	r5, #1
    11ba:	680c      	ldr	r4, [r1, #0]
    11bc:	409d      	lsls	r5, r3
    11be:	2900      	cmp	r1, #0
    11c0:	d0f2      	beq.n	11a8 <nrfx_gpio_handler+0xc>
    11c2:	688a      	ldr	r2, [r1, #8]
    11c4:	402a      	ands	r2, r5
    11c6:	d002      	beq.n	11ce <nrfx_gpio_handler+0x32>
    11c8:	684b      	ldr	r3, [r1, #4]
    11ca:	4630      	mov	r0, r6
    11cc:	4798      	blx	r3
    11ce:	b12c      	cbz	r4, 11dc <nrfx_gpio_handler+0x40>
    11d0:	6823      	ldr	r3, [r4, #0]
    11d2:	4621      	mov	r1, r4
    11d4:	461c      	mov	r4, r3
    11d6:	e7f2      	b.n	11be <nrfx_gpio_handler+0x22>
    11d8:	4e02      	ldr	r6, [pc, #8]	; (11e4 <nrfx_gpio_handler+0x48>)
    11da:	e7e7      	b.n	11ac <nrfx_gpio_handler+0x10>
    11dc:	4623      	mov	r3, r4
    11de:	e7f8      	b.n	11d2 <nrfx_gpio_handler+0x36>
    11e0:	000043f0 	.word	0x000043f0
    11e4:	000043dc 	.word	0x000043dc

000011e8 <gpio_nrfx_pin_configure>:
    11e8:	e92d 43f0 	stmdb	sp!, {r4, r5, r6, r7, r8, r9, lr}
    11ec:	6846      	ldr	r6, [r0, #4]
    11ee:	f240 3506 	movw	r5, #774	; 0x306
    11f2:	06d0      	lsls	r0, r2, #27
    11f4:	7b33      	ldrb	r3, [r6, #12]
    11f6:	b087      	sub	sp, #28
    11f8:	ea02 0505 	and.w	r5, r2, r5
    11fc:	bf54      	ite	pl
    11fe:	f3c2 1040 	ubfxpl	r0, r2, #5, #1
    1202:	2003      	movmi	r0, #3
    1204:	f001 071f 	and.w	r7, r1, #31
    1208:	f5b5 7f83 	cmp.w	r5, #262	; 0x106
    120c:	4614      	mov	r4, r2
    120e:	ea47 1743 	orr.w	r7, r7, r3, lsl #5
    1212:	f88d 0003 	strb.w	r0, [sp, #3]
    1216:	d044      	beq.n	12a2 <gpio_nrfx_pin_configure+0xba>
    1218:	d80f      	bhi.n	123a <gpio_nrfx_pin_configure+0x52>
    121a:	2d06      	cmp	r5, #6
    121c:	d018      	beq.n	1250 <gpio_nrfx_pin_configure+0x68>
    121e:	d807      	bhi.n	1230 <gpio_nrfx_pin_configure+0x48>
    1220:	b1b5      	cbz	r5, 1250 <gpio_nrfx_pin_configure+0x68>
    1222:	2d02      	cmp	r5, #2
    1224:	d03f      	beq.n	12a6 <gpio_nrfx_pin_configure+0xbe>
    1226:	f06f 0015 	mvn.w	r0, #21
    122a:	b007      	add	sp, #28
    122c:	e8bd 83f0 	ldmia.w	sp!, {r4, r5, r6, r7, r8, r9, pc}
    1230:	f5b5 7f80 	cmp.w	r5, #256	; 0x100
    1234:	d1f7      	bne.n	1226 <gpio_nrfx_pin_configure+0x3e>
    1236:	2501      	movs	r5, #1
    1238:	e00a      	b.n	1250 <gpio_nrfx_pin_configure+0x68>
    123a:	f240 2202 	movw	r2, #514	; 0x202
    123e:	4295      	cmp	r5, r2
    1240:	d033      	beq.n	12aa <gpio_nrfx_pin_configure+0xc2>
    1242:	f5b5 7f40 	cmp.w	r5, #768	; 0x300
    1246:	d032      	beq.n	12ae <gpio_nrfx_pin_configure+0xc6>
    1248:	f5b5 7f00 	cmp.w	r5, #512	; 0x200
    124c:	d1eb      	bne.n	1226 <gpio_nrfx_pin_configure+0x3e>
    124e:	2502      	movs	r5, #2
    1250:	0322      	lsls	r2, r4, #12
    1252:	d52e      	bpl.n	12b2 <gpio_nrfx_pin_configure+0xca>
    1254:	6872      	ldr	r2, [r6, #4]
    1256:	2301      	movs	r3, #1
    1258:	408b      	lsls	r3, r1
    125a:	f8c2 3508 	str.w	r3, [r2, #1288]	; 0x508
    125e:	6932      	ldr	r2, [r6, #16]
    1260:	bb92      	cbnz	r2, 12c8 <gpio_nrfx_pin_configure+0xe0>
    1262:	f007 031f 	and.w	r3, r7, #31
    1266:	097f      	lsrs	r7, r7, #5
    1268:	d02b      	beq.n	12c2 <gpio_nrfx_pin_configure+0xda>
    126a:	2f01      	cmp	r7, #1
    126c:	d179      	bne.n	1362 <gpio_nrfx_pin_configure+0x17a>
    126e:	4a3f      	ldr	r2, [pc, #252]	; (136c <gpio_nrfx_pin_configure+0x184>)
    1270:	eb02 0283 	add.w	r2, r2, r3, lsl #2
    1274:	f484 3380 	eor.w	r3, r4, #65536	; 0x10000
    1278:	f8d2 1700 	ldr.w	r1, [r2, #1792]	; 0x700
    127c:	f3c3 4300 	ubfx	r3, r3, #16, #1
    1280:	f3c4 4440 	ubfx	r4, r4, #17, #1
    1284:	ea44 0443 	orr.w	r4, r4, r3, lsl #1
    1288:	f421 61e1 	bic.w	r1, r1, #1800	; 0x708
    128c:	ea44 0480 	orr.w	r4, r4, r0, lsl #2
    1290:	f021 0107 	bic.w	r1, r1, #7
    1294:	ea44 2305 	orr.w	r3, r4, r5, lsl #8
    1298:	430b      	orrs	r3, r1
    129a:	f8c2 3700 	str.w	r3, [r2, #1792]	; 0x700
    129e:	2000      	movs	r0, #0
    12a0:	e7c3      	b.n	122a <gpio_nrfx_pin_configure+0x42>
    12a2:	2507      	movs	r5, #7
    12a4:	e7d4      	b.n	1250 <gpio_nrfx_pin_configure+0x68>
    12a6:	2504      	movs	r5, #4
    12a8:	e7d2      	b.n	1250 <gpio_nrfx_pin_configure+0x68>
    12aa:	2505      	movs	r5, #5
    12ac:	e7d0      	b.n	1250 <gpio_nrfx_pin_configure+0x68>
    12ae:	2503      	movs	r5, #3
    12b0:	e7ce      	b.n	1250 <gpio_nrfx_pin_configure+0x68>
    12b2:	0363      	lsls	r3, r4, #13
    12b4:	bf41      	itttt	mi
    12b6:	2301      	movmi	r3, #1
    12b8:	6872      	ldrmi	r2, [r6, #4]
    12ba:	408b      	lslmi	r3, r1
    12bc:	f8c2 350c 	strmi.w	r3, [r2, #1292]	; 0x50c
    12c0:	e7cd      	b.n	125e <gpio_nrfx_pin_configure+0x76>
    12c2:	f04f 42a0 	mov.w	r2, #1342177280	; 0x50000000
    12c6:	e7d3      	b.n	1270 <gpio_nrfx_pin_configure+0x88>
    12c8:	3610      	adds	r6, #16
    12ca:	f10d 0202 	add.w	r2, sp, #2
    12ce:	4639      	mov	r1, r7
    12d0:	4630      	mov	r0, r6
    12d2:	f001 f8c3 	bl	245c <nrfx_gpiote_channel_get>
    12d6:	f414 3f40 	tst.w	r4, #196608	; 0x30000
    12da:	4680      	mov	r8, r0
    12dc:	d10c      	bne.n	12f8 <gpio_nrfx_pin_configure+0x110>
    12de:	4639      	mov	r1, r7
    12e0:	4630      	mov	r0, r6
    12e2:	f002 fe9a 	bl	401a <nrfx_gpiote_pin_uninit>
    12e6:	4b22      	ldr	r3, [pc, #136]	; (1370 <gpio_nrfx_pin_configure+0x188>)
    12e8:	4598      	cmp	r8, r3
    12ea:	d1d8      	bne.n	129e <gpio_nrfx_pin_configure+0xb6>
    12ec:	f89d 1002 	ldrb.w	r1, [sp, #2]
    12f0:	4630      	mov	r0, r6
    12f2:	f001 f90b 	bl	250c <nrfx_gpiote_channel_free>
    12f6:	e7d2      	b.n	129e <gpio_nrfx_pin_configure+0xb6>
    12f8:	ab01      	add	r3, sp, #4
    12fa:	f04f 0900 	mov.w	r9, #0
    12fe:	aa03      	add	r2, sp, #12
    1300:	4639      	mov	r1, r7
    1302:	4630      	mov	r0, r6
    1304:	e9cd 3904 	strd	r3, r9, [sp, #16]
    1308:	e9cd 9901 	strd	r9, r9, [sp, #4]
    130c:	f8cd 900c 	str.w	r9, [sp, #12]
    1310:	f000 ff66 	bl	21e0 <nrfx_gpiote_input_configure>
    1314:	4b16      	ldr	r3, [pc, #88]	; (1370 <gpio_nrfx_pin_configure+0x188>)
    1316:	4298      	cmp	r0, r3
    1318:	d185      	bne.n	1226 <gpio_nrfx_pin_configure+0x3e>
    131a:	f414 3300 	ands.w	r3, r4, #131072	; 0x20000
    131e:	d015      	beq.n	134c <gpio_nrfx_pin_configure+0x164>
    1320:	f89d 3003 	ldrb.w	r3, [sp, #3]
    1324:	f88d 300e 	strb.w	r3, [sp, #14]
    1328:	f484 3480 	eor.w	r4, r4, #65536	; 0x10000
    132c:	f3c4 4400 	ubfx	r4, r4, #16, #1
    1330:	464b      	mov	r3, r9
    1332:	aa03      	add	r2, sp, #12
    1334:	4639      	mov	r1, r7
    1336:	4630      	mov	r0, r6
    1338:	f88d 500c 	strb.w	r5, [sp, #12]
    133c:	f88d 400d 	strb.w	r4, [sp, #13]
    1340:	f001 f808 	bl	2354 <nrfx_gpiote_output_configure>
    1344:	4b0a      	ldr	r3, [pc, #40]	; (1370 <gpio_nrfx_pin_configure+0x188>)
    1346:	4298      	cmp	r0, r3
    1348:	d0cd      	beq.n	12e6 <gpio_nrfx_pin_configure+0xfe>
    134a:	e76c      	b.n	1226 <gpio_nrfx_pin_configure+0x3e>
    134c:	e9cd 3304 	strd	r3, r3, [sp, #16]
    1350:	aa03      	add	r2, sp, #12
    1352:	f10d 0303 	add.w	r3, sp, #3
    1356:	4639      	mov	r1, r7
    1358:	4630      	mov	r0, r6
    135a:	9303      	str	r3, [sp, #12]
    135c:	f000 ff40 	bl	21e0 <nrfx_gpiote_input_configure>
    1360:	e7f0      	b.n	1344 <gpio_nrfx_pin_configure+0x15c>
    1362:	f503 73e0 	add.w	r3, r3, #448	; 0x1c0
    1366:	f852 3023 	ldr.w	r3, [r2, r3, lsl #2]
    136a:	deff      	udf	#255	; 0xff
    136c:	50000300 	.word	0x50000300
    1370:	0bad0000 	.word	0x0bad0000

00001374 <nrf_gpio_pin_port_decode>:
    1374:	6803      	ldr	r3, [r0, #0]
    1376:	f003 021f 	and.w	r2, r3, #31
    137a:	095b      	lsrs	r3, r3, #5
    137c:	6002      	str	r2, [r0, #0]
    137e:	d004      	beq.n	138a <nrf_gpio_pin_port_decode+0x16>
    1380:	2b01      	cmp	r3, #1
    1382:	4803      	ldr	r0, [pc, #12]	; (1390 <nrf_gpio_pin_port_decode+0x1c>)
    1384:	bf18      	it	ne
    1386:	2000      	movne	r0, #0
    1388:	4770      	bx	lr
    138a:	f04f 40a0 	mov.w	r0, #1342177280	; 0x50000000
    138e:	4770      	bx	lr
    1390:	50000300 	.word	0x50000300

00001394 <pinctrl_configure_pins>:
    1394:	e92d 4ff0 	stmdb	sp!, {r4, r5, r6, r7, r8, r9, sl, fp, lr}
    1398:	f8df 9194 	ldr.w	r9, [pc, #404]	; 1530 <pinctrl_configure_pins+0x19c>
    139c:	f8df a194 	ldr.w	sl, [pc, #404]	; 1534 <pinctrl_configure_pins+0x1a0>
    13a0:	b085      	sub	sp, #20
    13a2:	4615      	mov	r5, r2
    13a4:	4683      	mov	fp, r0
    13a6:	eb00 0181 	add.w	r1, r0, r1, lsl #2
    13aa:	f240 18ff 	movw	r8, #511	; 0x1ff
    13ae:	4559      	cmp	r1, fp
    13b0:	d103      	bne.n	13ba <pinctrl_configure_pins+0x26>
    13b2:	2000      	movs	r0, #0
    13b4:	b005      	add	sp, #20
    13b6:	e8bd 8ff0 	ldmia.w	sp!, {r4, r5, r6, r7, r8, r9, sl, fp, pc}
    13ba:	f8db 3000 	ldr.w	r3, [fp]
    13be:	045e      	lsls	r6, r3, #17
    13c0:	f3c3 22c3 	ubfx	r2, r3, #11, #4
    13c4:	f3c3 0408 	ubfx	r4, r3, #0, #9
    13c8:	f100 80ac 	bmi.w	1524 <pinctrl_configure_pins+0x190>
    13cc:	0c9b      	lsrs	r3, r3, #18
    13ce:	f819 7002 	ldrb.w	r7, [r9, r2]
    13d2:	4544      	cmp	r4, r8
    13d4:	bf08      	it	eq
    13d6:	f04f 34ff 	moveq.w	r4, #4294967295	; 0xffffffff
    13da:	2b22      	cmp	r3, #34	; 0x22
    13dc:	f200 80a5 	bhi.w	152a <pinctrl_configure_pins+0x196>
    13e0:	e8df f003 	tbb	[pc, r3]
    13e4:	221f1912 	.word	0x221f1912
    13e8:	a3222b25 	.word	0xa3222b25
    13ec:	3ba3a3a3 	.word	0x3ba3a3a3
    13f0:	a3a3a368 	.word	0xa3a3a368
    13f4:	a3a3a3a3 	.word	0xa3a3a3a3
    13f8:	816ba3a3 	.word	0x816ba3a3
    13fc:	a3a38784 	.word	0xa3a38784
    1400:	94918aa3 	.word	0x94918aa3
    1404:	9a97      	.short	0x9a97
    1406:	9d          	.byte	0x9d
    1407:	00          	.byte	0x00
    1408:	f8c5 450c 	str.w	r4, [r5, #1292]	; 0x50c
    140c:	1c60      	adds	r0, r4, #1
    140e:	d15e      	bne.n	14ce <pinctrl_configure_pins+0x13a>
    1410:	f10b 0b04 	add.w	fp, fp, #4
    1414:	e7cb      	b.n	13ae <pinctrl_configure_pins+0x1a>
    1416:	f8c5 4514 	str.w	r4, [r5, #1300]	; 0x514
    141a:	1c62      	adds	r2, r4, #1
    141c:	d0f8      	beq.n	1410 <pinctrl_configure_pins+0x7c>
    141e:	2600      	movs	r6, #0
    1420:	e05f      	b.n	14e2 <pinctrl_configure_pins+0x14e>
    1422:	f8c5 4508 	str.w	r4, [r5, #1288]	; 0x508
    1426:	e7f1      	b.n	140c <pinctrl_configure_pins+0x78>
    1428:	f8c5 4510 	str.w	r4, [r5, #1296]	; 0x510
    142c:	e7f5      	b.n	141a <pinctrl_configure_pins+0x86>
    142e:	1c63      	adds	r3, r4, #1
    1430:	f8c5 4508 	str.w	r4, [r5, #1288]	; 0x508
    1434:	d0ec      	beq.n	1410 <pinctrl_configure_pins+0x7c>
    1436:	2600      	movs	r6, #0
    1438:	e004      	b.n	1444 <pinctrl_configure_pins+0xb0>
    143a:	1c66      	adds	r6, r4, #1
    143c:	f8c5 450c 	str.w	r4, [r5, #1292]	; 0x50c
    1440:	d0e6      	beq.n	1410 <pinctrl_configure_pins+0x7c>
    1442:	2601      	movs	r6, #1
    1444:	a803      	add	r0, sp, #12
    1446:	9403      	str	r4, [sp, #12]
    1448:	f7ff ff94 	bl	1374 <nrf_gpio_pin_port_decode>
    144c:	9b03      	ldr	r3, [sp, #12]
    144e:	2201      	movs	r2, #1
    1450:	fa02 f303 	lsl.w	r3, r2, r3
    1454:	f8c0 350c 	str.w	r3, [r0, #1292]	; 0x50c
    1458:	e008      	b.n	146c <pinctrl_configure_pins+0xd8>
    145a:	f8c5 4508 	str.w	r4, [r5, #1288]	; 0x508
    145e:	2f00      	cmp	r7, #0
    1460:	d1db      	bne.n	141a <pinctrl_configure_pins+0x86>
    1462:	1c63      	adds	r3, r4, #1
    1464:	d0d4      	beq.n	1410 <pinctrl_configure_pins+0x7c>
    1466:	2600      	movs	r6, #0
    1468:	4632      	mov	r2, r6
    146a:	2706      	movs	r7, #6
    146c:	f8db 3000 	ldr.w	r3, [fp]
    1470:	9301      	str	r3, [sp, #4]
    1472:	f403 4000 	and.w	r0, r3, #32768	; 0x8000
    1476:	2800      	cmp	r0, #0
    1478:	bf18      	it	ne
    147a:	2200      	movne	r2, #0
    147c:	a803      	add	r0, sp, #12
    147e:	9200      	str	r2, [sp, #0]
    1480:	bf18      	it	ne
    1482:	2601      	movne	r6, #1
    1484:	9403      	str	r4, [sp, #12]
    1486:	f7ff ff75 	bl	1374 <nrf_gpio_pin_port_decode>
    148a:	9c03      	ldr	r4, [sp, #12]
    148c:	9b01      	ldr	r3, [sp, #4]
    148e:	9a00      	ldr	r2, [sp, #0]
    1490:	eb00 0084 	add.w	r0, r0, r4, lsl #2
    1494:	f3c3 2c41 	ubfx	ip, r3, #9, #2
    1498:	f8d0 4700 	ldr.w	r4, [r0, #1792]	; 0x700
    149c:	023b      	lsls	r3, r7, #8
    149e:	ea43 038c 	orr.w	r3, r3, ip, lsl #2
    14a2:	4313      	orrs	r3, r2
    14a4:	ea04 040a 	and.w	r4, r4, sl
    14a8:	4323      	orrs	r3, r4
    14aa:	ea43 0346 	orr.w	r3, r3, r6, lsl #1
    14ae:	f8c0 3700 	str.w	r3, [r0, #1792]	; 0x700
    14b2:	e7ad      	b.n	1410 <pinctrl_configure_pins+0x7c>
    14b4:	f8c5 450c 	str.w	r4, [r5, #1292]	; 0x50c
    14b8:	e7d1      	b.n	145e <pinctrl_configure_pins+0xca>
    14ba:	f8c5 4560 	str.w	r4, [r5, #1376]	; 0x560
    14be:	1c60      	adds	r0, r4, #1
    14c0:	f8db 3000 	ldr.w	r3, [fp]
    14c4:	d0a4      	beq.n	1410 <pinctrl_configure_pins+0x7c>
    14c6:	f3c3 4300 	ubfx	r3, r3, #16, #1
    14ca:	2b00      	cmp	r3, #0
    14cc:	d0b9      	beq.n	1442 <pinctrl_configure_pins+0xae>
    14ce:	a803      	add	r0, sp, #12
    14d0:	9403      	str	r4, [sp, #12]
    14d2:	f7ff ff4f 	bl	1374 <nrf_gpio_pin_port_decode>
    14d6:	9b03      	ldr	r3, [sp, #12]
    14d8:	2601      	movs	r6, #1
    14da:	fa06 f303 	lsl.w	r3, r6, r3
    14de:	f8c0 3508 	str.w	r3, [r0, #1288]	; 0x508
    14e2:	4632      	mov	r2, r6
    14e4:	e7c2      	b.n	146c <pinctrl_configure_pins+0xd8>
    14e6:	f8c5 4564 	str.w	r4, [r5, #1380]	; 0x564
    14ea:	e7e8      	b.n	14be <pinctrl_configure_pins+0x12a>
    14ec:	f8c5 4568 	str.w	r4, [r5, #1384]	; 0x568
    14f0:	e7e5      	b.n	14be <pinctrl_configure_pins+0x12a>
    14f2:	f8c5 456c 	str.w	r4, [r5, #1388]	; 0x56c
    14f6:	e7e2      	b.n	14be <pinctrl_configure_pins+0x12a>
    14f8:	f8c5 4524 	str.w	r4, [r5, #1316]	; 0x524
    14fc:	1c62      	adds	r2, r4, #1
    14fe:	d087      	beq.n	1410 <pinctrl_configure_pins+0x7c>
    1500:	2200      	movs	r2, #0
    1502:	2601      	movs	r6, #1
    1504:	e7b2      	b.n	146c <pinctrl_configure_pins+0xd8>
    1506:	f8c5 4528 	str.w	r4, [r5, #1320]	; 0x528
    150a:	e77f      	b.n	140c <pinctrl_configure_pins+0x78>
    150c:	f8c5 4530 	str.w	r4, [r5, #1328]	; 0x530
    1510:	e7f4      	b.n	14fc <pinctrl_configure_pins+0x168>
    1512:	f8c5 4534 	str.w	r4, [r5, #1332]	; 0x534
    1516:	e7f1      	b.n	14fc <pinctrl_configure_pins+0x168>
    1518:	f8c5 4538 	str.w	r4, [r5, #1336]	; 0x538
    151c:	e7ee      	b.n	14fc <pinctrl_configure_pins+0x168>
    151e:	f8c5 453c 	str.w	r4, [r5, #1340]	; 0x53c
    1522:	e773      	b.n	140c <pinctrl_configure_pins+0x78>
    1524:	f06f 0015 	mvn.w	r0, #21
    1528:	e744      	b.n	13b4 <pinctrl_configure_pins+0x20>
    152a:	f06f 0085 	mvn.w	r0, #133	; 0x85
    152e:	e741      	b.n	13b4 <pinctrl_configure_pins+0x20>
    1530:	0000472d 	.word	0x0000472d
    1534:	fffcf8f0 	.word	0xfffcf8f0

00001538 <uarte_0_init>:
    1538:	b5f7      	push	{r0, r1, r2, r4, r5, r6, r7, lr}
    153a:	4607      	mov	r7, r0
    153c:	2200      	movs	r2, #0
    153e:	2101      	movs	r1, #1
    1540:	2002      	movs	r0, #2
    1542:	f7ff f97d 	bl	840 <z_arm_irq_priority_set>
    1546:	2002      	movs	r0, #2
    1548:	f7ff f95e 	bl	808 <arch_irq_enable>
    154c:	687d      	ldr	r5, [r7, #4]
    154e:	693e      	ldr	r6, [r7, #16]
    1550:	682c      	ldr	r4, [r5, #0]
    1552:	2100      	movs	r1, #0
    1554:	f8c4 1500 	str.w	r1, [r4, #1280]	; 0x500
    1558:	6037      	str	r7, [r6, #0]
    155a:	692f      	ldr	r7, [r5, #16]
    155c:	aa01      	add	r2, sp, #4
    155e:	4638      	mov	r0, r7
    1560:	f002 fc4f 	bl	3e02 <pinctrl_lookup_state>
    1564:	2800      	cmp	r0, #0
    1566:	db4e      	blt.n	1606 <uarte_0_init+0xce>
    1568:	9b01      	ldr	r3, [sp, #4]
    156a:	683a      	ldr	r2, [r7, #0]
    156c:	7919      	ldrb	r1, [r3, #4]
    156e:	6818      	ldr	r0, [r3, #0]
    1570:	f7ff ff10 	bl	1394 <pinctrl_configure_pins>
    1574:	2800      	cmp	r0, #0
    1576:	db46      	blt.n	1606 <uarte_0_init+0xce>
    1578:	696b      	ldr	r3, [r5, #20]
    157a:	f8c4 3524 	str.w	r3, [r4, #1316]	; 0x524
    157e:	7e6a      	ldrb	r2, [r5, #25]
    1580:	7e2b      	ldrb	r3, [r5, #24]
    1582:	4313      	orrs	r3, r2
    1584:	7eaa      	ldrb	r2, [r5, #26]
    1586:	4313      	orrs	r3, r2
    1588:	f8c4 356c 	str.w	r3, [r4, #1388]	; 0x56c
    158c:	68ab      	ldr	r3, [r5, #8]
    158e:	0799      	lsls	r1, r3, #30
    1590:	d512      	bpl.n	15b8 <uarte_0_init+0x80>
    1592:	f106 0010 	add.w	r0, r6, #16
    1596:	f001 f8fb 	bl	2790 <nrfx_ppi_channel_alloc>
    159a:	4b1d      	ldr	r3, [pc, #116]	; (1610 <uarte_0_init+0xd8>)
    159c:	4298      	cmp	r0, r3
    159e:	d134      	bne.n	160a <uarte_0_init+0xd2>
    15a0:	7c30      	ldrb	r0, [r6, #16]
    15a2:	f104 020c 	add.w	r2, r4, #12
    15a6:	f504 7190 	add.w	r1, r4, #288	; 0x120
    15aa:	f002 fcae 	bl	3f0a <nrfx_gppi_channel_endpoints_setup>
    15ae:	7c33      	ldrb	r3, [r6, #16]
    15b0:	2001      	movs	r0, #1
    15b2:	4098      	lsls	r0, r3
    15b4:	f000 fbea 	bl	1d8c <nrfx_gppi_channels_enable>
    15b8:	2308      	movs	r3, #8
    15ba:	f8c4 3500 	str.w	r3, [r4, #1280]	; 0x500
    15be:	7b2b      	ldrb	r3, [r5, #12]
    15c0:	b953      	cbnz	r3, 15d8 <uarte_0_init+0xa0>
    15c2:	f8c4 3110 	str.w	r3, [r4, #272]	; 0x110
    15c6:	f8d4 3110 	ldr.w	r3, [r4, #272]	; 0x110
    15ca:	68f3      	ldr	r3, [r6, #12]
    15cc:	f8c4 3534 	str.w	r3, [r4, #1332]	; 0x534
    15d0:	2301      	movs	r3, #1
    15d2:	f8c4 3538 	str.w	r3, [r4, #1336]	; 0x538
    15d6:	6023      	str	r3, [r4, #0]
    15d8:	68ab      	ldr	r3, [r5, #8]
    15da:	079a      	lsls	r2, r3, #30
    15dc:	bf5c      	itt	pl
    15de:	f44f 7380 	movpl.w	r3, #256	; 0x100
    15e2:	f8c4 3304 	strpl.w	r3, [r4, #772]	; 0x304
    15e6:	68ab      	ldr	r3, [r5, #8]
    15e8:	06db      	lsls	r3, r3, #27
    15ea:	bf44      	itt	mi
    15ec:	f44f 0380 	movmi.w	r3, #4194304	; 0x400000
    15f0:	f8c4 3304 	strmi.w	r3, [r4, #772]	; 0x304
    15f4:	68b3      	ldr	r3, [r6, #8]
    15f6:	f8c4 3544 	str.w	r3, [r4, #1348]	; 0x544
    15fa:	2000      	movs	r0, #0
    15fc:	2301      	movs	r3, #1
    15fe:	f8c4 0548 	str.w	r0, [r4, #1352]	; 0x548
    1602:	60a3      	str	r3, [r4, #8]
    1604:	60e3      	str	r3, [r4, #12]
    1606:	b003      	add	sp, #12
    1608:	bdf0      	pop	{r4, r5, r6, r7, pc}
    160a:	f06f 0004 	mvn.w	r0, #4
    160e:	e7fa      	b.n	1606 <uarte_0_init+0xce>
    1610:	0bad0000 	.word	0x0bad0000

00001614 <uarte_nrfx_poll_out>:
    1614:	e92d 41f0 	stmdb	sp!, {r4, r5, r6, r7, r8, lr}
    1618:	4604      	mov	r4, r0
    161a:	6907      	ldr	r7, [r0, #16]
    161c:	460d      	mov	r5, r1
    161e:	f002 fd4a 	bl	40b6 <k_is_in_isr>
    1622:	f04f 0820 	mov.w	r8, #32
    1626:	b9b0      	cbnz	r0, 1656 <_image_ram_size+0x16>
    1628:	4b2c      	ldr	r3, [pc, #176]	; (16dc <_image_ram_size+0x9c>)
    162a:	781b      	ldrb	r3, [r3, #0]
    162c:	b19b      	cbz	r3, 1656 <_image_ram_size+0x16>
    162e:	2664      	movs	r6, #100	; 0x64
    1630:	6860      	ldr	r0, [r4, #4]
    1632:	f002 fc14 	bl	3e5e <is_tx_ready.isra.0>
    1636:	b9f0      	cbnz	r0, 1676 <_image_ram_size+0x36>
    1638:	2001      	movs	r0, #1
    163a:	f002 fc64 	bl	3f06 <nrfx_busy_wait>
    163e:	3e01      	subs	r6, #1
    1640:	d1f6      	bne.n	1630 <uarte_nrfx_poll_out+0x1c>
    1642:	2100      	movs	r1, #0
    1644:	2021      	movs	r0, #33	; 0x21
    1646:	f001 fcf5 	bl	3034 <z_impl_k_sleep>
    164a:	e7f0      	b.n	162e <uarte_nrfx_poll_out+0x1a>
    164c:	f386 8811 	msr	BASEPRI, r6
    1650:	f3bf 8f6f 	isb	sy
    1654:	e7f5      	b.n	1642 <_image_ram_size+0x2>
    1656:	f3ef 8611 	mrs	r6, BASEPRI
    165a:	4631      	mov	r1, r6
    165c:	f388 8812 	msr	BASEPRI_MAX, r8
    1660:	f3bf 8f6f 	isb	sy
    1664:	6860      	ldr	r0, [r4, #4]
    1666:	f002 fbfa 	bl	3e5e <is_tx_ready.isra.0>
    166a:	b980      	cbnz	r0, 168e <_image_ram_size+0x4e>
    166c:	f386 8811 	msr	BASEPRI, r6
    1670:	f3bf 8f6f 	isb	sy
    1674:	e7ef      	b.n	1656 <_image_ram_size+0x16>
    1676:	f3ef 8611 	mrs	r6, BASEPRI
    167a:	4631      	mov	r1, r6
    167c:	f388 8812 	msr	BASEPRI_MAX, r8
    1680:	f3bf 8f6f 	isb	sy
    1684:	6860      	ldr	r0, [r4, #4]
    1686:	f002 fbea 	bl	3e5e <is_tx_ready.isra.0>
    168a:	2800      	cmp	r0, #0
    168c:	d0de      	beq.n	164c <_image_ram_size+0xc>
    168e:	68bb      	ldr	r3, [r7, #8]
    1690:	701d      	strb	r5, [r3, #0]
    1692:	6862      	ldr	r2, [r4, #4]
    1694:	68b8      	ldr	r0, [r7, #8]
    1696:	6813      	ldr	r3, [r2, #0]
    1698:	f8c3 0544 	str.w	r0, [r3, #1348]	; 0x544
    169c:	2001      	movs	r0, #1
    169e:	f8c3 0548 	str.w	r0, [r3, #1352]	; 0x548
    16a2:	2000      	movs	r0, #0
    16a4:	f8c3 0120 	str.w	r0, [r3, #288]	; 0x120
    16a8:	f8d3 5120 	ldr.w	r5, [r3, #288]	; 0x120
    16ac:	f8c3 0158 	str.w	r0, [r3, #344]	; 0x158
    16b0:	6892      	ldr	r2, [r2, #8]
    16b2:	f8d3 0158 	ldr.w	r0, [r3, #344]	; 0x158
    16b6:	06d2      	lsls	r2, r2, #27
    16b8:	d508      	bpl.n	16cc <_image_ram_size+0x8c>
    16ba:	6862      	ldr	r2, [r4, #4]
    16bc:	6812      	ldr	r2, [r2, #0]
    16be:	2008      	movs	r0, #8
    16c0:	f8c2 0500 	str.w	r0, [r2, #1280]	; 0x500
    16c4:	f44f 0280 	mov.w	r2, #4194304	; 0x400000
    16c8:	f8c3 2304 	str.w	r2, [r3, #772]	; 0x304
    16cc:	2201      	movs	r2, #1
    16ce:	609a      	str	r2, [r3, #8]
    16d0:	f381 8811 	msr	BASEPRI, r1
    16d4:	f3bf 8f6f 	isb	sy
    16d8:	e8bd 81f0 	ldmia.w	sp!, {r4, r5, r6, r7, r8, pc}
    16dc:	20000827 	.word	0x20000827

000016e0 <compare_int_lock>:
    16e0:	b570      	push	{r4, r5, r6, lr}
    16e2:	2301      	movs	r3, #1
    16e4:	4083      	lsls	r3, r0
    16e6:	4a0e      	ldr	r2, [pc, #56]	; (1720 <compare_int_lock+0x40>)
    16e8:	f3bf 8f5b 	dmb	ish
    16ec:	43dc      	mvns	r4, r3
    16ee:	e852 1f00 	ldrex	r1, [r2]
    16f2:	ea01 0504 	and.w	r5, r1, r4
    16f6:	e842 5600 	strex	r6, r5, [r2]
    16fa:	2e00      	cmp	r6, #0
    16fc:	d1f7      	bne.n	16ee <compare_int_lock+0xe>
    16fe:	f3bf 8f5b 	dmb	ish
    1702:	f44f 3280 	mov.w	r2, #65536	; 0x10000
    1706:	4082      	lsls	r2, r0
    1708:	4806      	ldr	r0, [pc, #24]	; (1724 <compare_int_lock+0x44>)
    170a:	f8c0 2308 	str.w	r2, [r0, #776]	; 0x308
    170e:	f3bf 8f5f 	dmb	sy
    1712:	f3bf 8f6f 	isb	sy
    1716:	420b      	tst	r3, r1
    1718:	bf14      	ite	ne
    171a:	2001      	movne	r0, #1
    171c:	2000      	moveq	r0, #0
    171e:	bd70      	pop	{r4, r5, r6, pc}
    1720:	200007e4 	.word	0x200007e4
    1724:	40011000 	.word	0x40011000

00001728 <sys_clock_timeout_handler>:
    1728:	b470      	push	{r4, r5, r6}
    172a:	490e      	ldr	r1, [pc, #56]	; (1764 <sys_clock_timeout_handler+0x3c>)
    172c:	e9d1 3400 	ldrd	r3, r4, [r1]
    1730:	1ad0      	subs	r0, r2, r3
    1732:	18c3      	adds	r3, r0, r3
    1734:	f144 0400 	adc.w	r4, r4, #0
    1738:	f022 467f 	bic.w	r6, r2, #4278190080	; 0xff000000
    173c:	e9c1 3400 	strd	r3, r4, [r1]
    1740:	f5a6 1300 	sub.w	r3, r6, #2097152	; 0x200000
    1744:	f5b3 0f40 	cmp.w	r3, #12582912	; 0xc00000
    1748:	d209      	bcs.n	175e <sys_clock_timeout_handler+0x36>
    174a:	4b07      	ldr	r3, [pc, #28]	; (1768 <sys_clock_timeout_handler+0x40>)
    174c:	681b      	ldr	r3, [r3, #0]
    174e:	0a1a      	lsrs	r2, r3, #8
    1750:	061b      	lsls	r3, r3, #24
    1752:	199c      	adds	r4, r3, r6
    1754:	4b05      	ldr	r3, [pc, #20]	; (176c <sys_clock_timeout_handler+0x44>)
    1756:	f142 0500 	adc.w	r5, r2, #0
    175a:	e9c3 4500 	strd	r4, r5, [r3]
    175e:	bc70      	pop	{r4, r5, r6}
    1760:	f001 bdec 	b.w	333c <sys_clock_announce>
    1764:	20000590 	.word	0x20000590
    1768:	200007e8 	.word	0x200007e8
    176c:	20000598 	.word	0x20000598

00001770 <compare_int_unlock>:
    1770:	b311      	cbz	r1, 17b8 <compare_int_unlock+0x48>
    1772:	f3bf 8f5b 	dmb	ish
    1776:	2301      	movs	r3, #1
    1778:	4a10      	ldr	r2, [pc, #64]	; (17bc <compare_int_unlock+0x4c>)
    177a:	4083      	lsls	r3, r0
    177c:	e852 cf00 	ldrex	ip, [r2]
    1780:	ea4c 0c03 	orr.w	ip, ip, r3
    1784:	e842 c100 	strex	r1, ip, [r2]
    1788:	2900      	cmp	r1, #0
    178a:	d1f7      	bne.n	177c <compare_int_unlock+0xc>
    178c:	f3bf 8f5b 	dmb	ish
    1790:	4a0b      	ldr	r2, [pc, #44]	; (17c0 <compare_int_unlock+0x50>)
    1792:	f44f 3380 	mov.w	r3, #65536	; 0x10000
    1796:	4083      	lsls	r3, r0
    1798:	f8c2 3304 	str.w	r3, [r2, #772]	; 0x304
    179c:	4b09      	ldr	r3, [pc, #36]	; (17c4 <compare_int_unlock+0x54>)
    179e:	f3bf 8f5b 	dmb	ish
    17a2:	681b      	ldr	r3, [r3, #0]
    17a4:	f3bf 8f5b 	dmb	ish
    17a8:	40c3      	lsrs	r3, r0
    17aa:	07db      	lsls	r3, r3, #31
    17ac:	bf42      	ittt	mi
    17ae:	4b06      	ldrmi	r3, [pc, #24]	; (17c8 <compare_int_unlock+0x58>)
    17b0:	f44f 3200 	movmi.w	r2, #131072	; 0x20000
    17b4:	f8c3 2100 	strmi.w	r2, [r3, #256]	; 0x100
    17b8:	4770      	bx	lr
    17ba:	bf00      	nop
    17bc:	200007e4 	.word	0x200007e4
    17c0:	40011000 	.word	0x40011000
    17c4:	200007e0 	.word	0x200007e0
    17c8:	e000e100 	.word	0xe000e100

000017cc <z_nrf_rtc_timer_read>:
    17cc:	4b0d      	ldr	r3, [pc, #52]	; (1804 <z_nrf_rtc_timer_read+0x38>)
    17ce:	6818      	ldr	r0, [r3, #0]
    17d0:	0a01      	lsrs	r1, r0, #8
    17d2:	0600      	lsls	r0, r0, #24
    17d4:	f3bf 8f5f 	dmb	sy
    17d8:	4b0b      	ldr	r3, [pc, #44]	; (1808 <z_nrf_rtc_timer_read+0x3c>)
    17da:	f8d3 3504 	ldr.w	r3, [r3, #1284]	; 0x504
    17de:	1818      	adds	r0, r3, r0
    17e0:	f141 0100 	adc.w	r1, r1, #0
    17e4:	f5b3 1f80 	cmp.w	r3, #1048576	; 0x100000
    17e8:	d20a      	bcs.n	1800 <z_nrf_rtc_timer_read+0x34>
    17ea:	4b08      	ldr	r3, [pc, #32]	; (180c <z_nrf_rtc_timer_read+0x40>)
    17ec:	e9d3 2300 	ldrd	r2, r3, [r3]
    17f0:	4290      	cmp	r0, r2
    17f2:	eb71 0303 	sbcs.w	r3, r1, r3
    17f6:	d203      	bcs.n	1800 <z_nrf_rtc_timer_read+0x34>
    17f8:	f110 7080 	adds.w	r0, r0, #16777216	; 0x1000000
    17fc:	f141 0100 	adc.w	r1, r1, #0
    1800:	4770      	bx	lr
    1802:	bf00      	nop
    1804:	200007e8 	.word	0x200007e8
    1808:	40011000 	.word	0x40011000
    180c:	20000598 	.word	0x20000598

00001810 <compare_set>:
    1810:	e92d 4ff0 	stmdb	sp!, {r4, r5, r6, r7, r8, r9, sl, fp, lr}
    1814:	b085      	sub	sp, #20
    1816:	4616      	mov	r6, r2
    1818:	461f      	mov	r7, r3
    181a:	f89d a040 	ldrb.w	sl, [sp, #64]	; 0x40
    181e:	4604      	mov	r4, r0
    1820:	f7ff ff5e 	bl	16e0 <compare_int_lock>
    1824:	9001      	str	r0, [sp, #4]
    1826:	f7ff ffd1 	bl	17cc <z_nrf_rtc_timer_read>
    182a:	42b0      	cmp	r0, r6
    182c:	eb71 0307 	sbcs.w	r3, r1, r7
    1830:	d254      	bcs.n	18dc <compare_set+0xcc>
    1832:	4b3e      	ldr	r3, [pc, #248]	; (192c <compare_set+0x11c>)
    1834:	1a30      	subs	r0, r6, r0
    1836:	eb67 0101 	sbc.w	r1, r7, r1
    183a:	4298      	cmp	r0, r3
    183c:	f171 0100 	sbcs.w	r1, r1, #0
    1840:	d24f      	bcs.n	18e2 <compare_set+0xd2>
    1842:	4b3b      	ldr	r3, [pc, #236]	; (1930 <compare_set+0x120>)
    1844:	eb03 1304 	add.w	r3, r3, r4, lsl #4
    1848:	e9d3 2302 	ldrd	r2, r3, [r3, #8]
    184c:	429f      	cmp	r7, r3
    184e:	bf08      	it	eq
    1850:	4296      	cmpeq	r6, r2
    1852:	d05e      	beq.n	1912 <compare_set+0x102>
    1854:	4937      	ldr	r1, [pc, #220]	; (1934 <compare_set+0x124>)
    1856:	f44f 3880 	mov.w	r8, #65536	; 0x10000
    185a:	f104 0550 	add.w	r5, r4, #80	; 0x50
    185e:	fa08 f804 	lsl.w	r8, r8, r4
    1862:	00ad      	lsls	r5, r5, #2
    1864:	f8c1 8348 	str.w	r8, [r1, #840]	; 0x348
    1868:	4620      	mov	r0, r4
    186a:	b2ad      	uxth	r5, r5
    186c:	f002 fb3e 	bl	3eec <event_clear>
    1870:	f026 4b7f 	bic.w	fp, r6, #4278190080	; 0xff000000
    1874:	f105 4580 	add.w	r5, r5, #1073741824	; 0x40000000
    1878:	f504 73a8 	add.w	r3, r4, #336	; 0x150
    187c:	f505 3588 	add.w	r5, r5, #69632	; 0x11000
    1880:	46dc      	mov	ip, fp
    1882:	f04f 0903 	mov.w	r9, #3
    1886:	9302      	str	r3, [sp, #8]
    1888:	9a02      	ldr	r2, [sp, #8]
    188a:	f02c 437f 	bic.w	r3, ip, #4278190080	; 0xff000000
    188e:	f841 3022 	str.w	r3, [r1, r2, lsl #2]
    1892:	f8c1 8344 	str.w	r8, [r1, #836]	; 0x344
    1896:	f8d1 3504 	ldr.w	r3, [r1, #1284]	; 0x504
    189a:	4a27      	ldr	r2, [pc, #156]	; (1938 <compare_set+0x128>)
    189c:	f06f 0002 	mvn.w	r0, #2
    18a0:	1ac0      	subs	r0, r0, r3
    18a2:	4460      	add	r0, ip
    18a4:	f020 407f 	bic.w	r0, r0, #4278190080	; 0xff000000
    18a8:	4290      	cmp	r0, r2
    18aa:	d932      	bls.n	1912 <compare_set+0x102>
    18ac:	6828      	ldr	r0, [r5, #0]
    18ae:	b168      	cbz	r0, 18cc <compare_set+0xbc>
    18b0:	f8d1 3504 	ldr.w	r3, [r1, #1284]	; 0x504
    18b4:	9303      	str	r3, [sp, #12]
    18b6:	eba3 000b 	sub.w	r0, r3, fp
    18ba:	f020 407f 	bic.w	r0, r0, #4278190080	; 0xff000000
    18be:	f5b0 0f00 	cmp.w	r0, #8388608	; 0x800000
    18c2:	d926      	bls.n	1912 <compare_set+0x102>
    18c4:	4620      	mov	r0, r4
    18c6:	f002 fb11 	bl	3eec <event_clear>
    18ca:	9b03      	ldr	r3, [sp, #12]
    18cc:	f1ba 0f00 	cmp.w	sl, #0
    18d0:	d107      	bne.n	18e2 <compare_set+0xd2>
    18d2:	eb09 0c03 	add.w	ip, r9, r3
    18d6:	f109 0901 	add.w	r9, r9, #1
    18da:	e7d5      	b.n	1888 <compare_set+0x78>
    18dc:	f1ba 0f00 	cmp.w	sl, #0
    18e0:	d009      	beq.n	18f6 <compare_set+0xe6>
    18e2:	f06f 0515 	mvn.w	r5, #21
    18e6:	4620      	mov	r0, r4
    18e8:	9901      	ldr	r1, [sp, #4]
    18ea:	f7ff ff41 	bl	1770 <compare_int_unlock>
    18ee:	4628      	mov	r0, r5
    18f0:	b005      	add	sp, #20
    18f2:	e8bd 8ff0 	ldmia.w	sp!, {r4, r5, r6, r7, r8, r9, sl, fp, pc}
    18f6:	2301      	movs	r3, #1
    18f8:	4a10      	ldr	r2, [pc, #64]	; (193c <compare_set+0x12c>)
    18fa:	f3bf 8f5b 	dmb	ish
    18fe:	40a3      	lsls	r3, r4
    1900:	e852 0f00 	ldrex	r0, [r2]
    1904:	4318      	orrs	r0, r3
    1906:	e842 0100 	strex	r1, r0, [r2]
    190a:	2900      	cmp	r1, #0
    190c:	d1f8      	bne.n	1900 <compare_set+0xf0>
    190e:	f3bf 8f5b 	dmb	ish
    1912:	4907      	ldr	r1, [pc, #28]	; (1930 <compare_set+0x120>)
    1914:	980e      	ldr	r0, [sp, #56]	; 0x38
    1916:	0123      	lsls	r3, r4, #4
    1918:	eb01 1204 	add.w	r2, r1, r4, lsl #4
    191c:	50c8      	str	r0, [r1, r3]
    191e:	9b0f      	ldr	r3, [sp, #60]	; 0x3c
    1920:	6053      	str	r3, [r2, #4]
    1922:	e9c2 6702 	strd	r6, r7, [r2, #8]
    1926:	2500      	movs	r5, #0
    1928:	e7dd      	b.n	18e6 <compare_set+0xd6>
    192a:	bf00      	nop
    192c:	00800001 	.word	0x00800001
    1930:	20000580 	.word	0x20000580
    1934:	40011000 	.word	0x40011000
    1938:	007ffffd 	.word	0x007ffffd
    193c:	200007e0 	.word	0x200007e0

00001940 <sys_clock_driver_init>:
    1940:	b57f      	push	{r0, r1, r2, r3, r4, r5, r6, lr}
    1942:	4c1c      	ldr	r4, [pc, #112]	; (19b4 <sys_clock_driver_init+0x74>)
    1944:	4b1c      	ldr	r3, [pc, #112]	; (19b8 <sys_clock_driver_init+0x78>)
    1946:	f8c4 3308 	str.w	r3, [r4, #776]	; 0x308
    194a:	f8c4 3348 	str.w	r3, [r4, #840]	; 0x348
    194e:	4b1b      	ldr	r3, [pc, #108]	; (19bc <sys_clock_driver_init+0x7c>)
    1950:	2500      	movs	r5, #0
    1952:	f04f 30ff 	mov.w	r0, #4294967295	; 0xffffffff
    1956:	f04f 31ff 	mov.w	r1, #4294967295	; 0xffffffff
    195a:	f8c4 5508 	str.w	r5, [r4, #1288]	; 0x508
    195e:	e9c3 0102 	strd	r0, r1, [r3, #8]
    1962:	f44f 3380 	mov.w	r3, #65536	; 0x10000
    1966:	f8c4 3304 	str.w	r3, [r4, #772]	; 0x304
    196a:	4b15      	ldr	r3, [pc, #84]	; (19c0 <sys_clock_driver_init+0x80>)
    196c:	2602      	movs	r6, #2
    196e:	f44f 3200 	mov.w	r2, #131072	; 0x20000
    1972:	2101      	movs	r1, #1
    1974:	f8c4 6304 	str.w	r6, [r4, #772]	; 0x304
    1978:	2011      	movs	r0, #17
    197a:	f8c3 2180 	str.w	r2, [r3, #384]	; 0x180
    197e:	462a      	mov	r2, r5
    1980:	f7fe ff5e 	bl	840 <z_arm_irq_priority_set>
    1984:	2011      	movs	r0, #17
    1986:	f7fe ff3f 	bl	808 <arch_irq_enable>
    198a:	4a0e      	ldr	r2, [pc, #56]	; (19c4 <sys_clock_driver_init+0x84>)
    198c:	2301      	movs	r3, #1
    198e:	60a3      	str	r3, [r4, #8]
    1990:	6023      	str	r3, [r4, #0]
    1992:	6013      	str	r3, [r2, #0]
    1994:	4b0c      	ldr	r3, [pc, #48]	; (19c8 <sys_clock_driver_init+0x88>)
    1996:	4a0d      	ldr	r2, [pc, #52]	; (19cc <sys_clock_driver_init+0x8c>)
    1998:	9300      	str	r3, [sp, #0]
    199a:	e9cd 5501 	strd	r5, r5, [sp, #4]
    199e:	2300      	movs	r3, #0
    19a0:	4628      	mov	r0, r5
    19a2:	f7ff ff35 	bl	1810 <compare_set>
    19a6:	4630      	mov	r0, r6
    19a8:	f7ff faae 	bl	f08 <z_nrf_clock_control_lf_on>
    19ac:	4628      	mov	r0, r5
    19ae:	b004      	add	sp, #16
    19b0:	bd70      	pop	{r4, r5, r6, pc}
    19b2:	bf00      	nop
    19b4:	40011000 	.word	0x40011000
    19b8:	000f0003 	.word	0x000f0003
    19bc:	20000580 	.word	0x20000580
    19c0:	e000e100 	.word	0xe000e100
    19c4:	200007e4 	.word	0x200007e4
    19c8:	00001729 	.word	0x00001729
    19cc:	007fffff 	.word	0x007fffff

000019d0 <rtc_nrf_isr>:
    19d0:	e92d 43f7 	stmdb	sp!, {r0, r1, r2, r4, r5, r6, r7, r8, r9, lr}
    19d4:	4c2f      	ldr	r4, [pc, #188]	; (1a94 <rtc_nrf_isr+0xc4>)
    19d6:	f8d4 3304 	ldr.w	r3, [r4, #772]	; 0x304
    19da:	0799      	lsls	r1, r3, #30
    19dc:	d50b      	bpl.n	19f6 <rtc_nrf_isr+0x26>
    19de:	f8d4 3104 	ldr.w	r3, [r4, #260]	; 0x104
    19e2:	b143      	cbz	r3, 19f6 <rtc_nrf_isr+0x26>
    19e4:	4a2c      	ldr	r2, [pc, #176]	; (1a98 <rtc_nrf_isr+0xc8>)
    19e6:	2300      	movs	r3, #0
    19e8:	f8c4 3104 	str.w	r3, [r4, #260]	; 0x104
    19ec:	f8d4 3104 	ldr.w	r3, [r4, #260]	; 0x104
    19f0:	6813      	ldr	r3, [r2, #0]
    19f2:	3301      	adds	r3, #1
    19f4:	6013      	str	r3, [r2, #0]
    19f6:	f8d4 3304 	ldr.w	r3, [r4, #772]	; 0x304
    19fa:	03da      	lsls	r2, r3, #15
    19fc:	d529      	bpl.n	1a52 <rtc_nrf_isr+0x82>
    19fe:	f3bf 8f5b 	dmb	ish
    1a02:	4b26      	ldr	r3, [pc, #152]	; (1a9c <rtc_nrf_isr+0xcc>)
    1a04:	e853 2f00 	ldrex	r2, [r3]
    1a08:	f022 0101 	bic.w	r1, r2, #1
    1a0c:	e843 1000 	strex	r0, r1, [r3]
    1a10:	2800      	cmp	r0, #0
    1a12:	d1f7      	bne.n	1a04 <rtc_nrf_isr+0x34>
    1a14:	f3bf 8f5b 	dmb	ish
    1a18:	07d3      	lsls	r3, r2, #31
    1a1a:	d402      	bmi.n	1a22 <rtc_nrf_isr+0x52>
    1a1c:	f8d4 3140 	ldr.w	r3, [r4, #320]	; 0x140
    1a20:	b1bb      	cbz	r3, 1a52 <rtc_nrf_isr+0x82>
    1a22:	2500      	movs	r5, #0
    1a24:	f8c4 5140 	str.w	r5, [r4, #320]	; 0x140
    1a28:	f8d4 3140 	ldr.w	r3, [r4, #320]	; 0x140
    1a2c:	f7ff fece 	bl	17cc <z_nrf_rtc_timer_read>
    1a30:	f3ef 8211 	mrs	r2, BASEPRI
    1a34:	2320      	movs	r3, #32
    1a36:	f383 8812 	msr	BASEPRI_MAX, r3
    1a3a:	f3bf 8f6f 	isb	sy
    1a3e:	4b18      	ldr	r3, [pc, #96]	; (1aa0 <rtc_nrf_isr+0xd0>)
    1a40:	e9d3 6702 	ldrd	r6, r7, [r3, #8]
    1a44:	42b0      	cmp	r0, r6
    1a46:	41b9      	sbcs	r1, r7
    1a48:	d206      	bcs.n	1a58 <rtc_nrf_isr+0x88>
    1a4a:	f382 8811 	msr	BASEPRI, r2
    1a4e:	f3bf 8f6f 	isb	sy
    1a52:	b003      	add	sp, #12
    1a54:	e8bd 83f0 	ldmia.w	sp!, {r4, r5, r6, r7, r8, r9, pc}
    1a58:	f04f 38ff 	mov.w	r8, #4294967295	; 0xffffffff
    1a5c:	f04f 39ff 	mov.w	r9, #4294967295	; 0xffffffff
    1a60:	e9c3 8902 	strd	r8, r9, [r3, #8]
    1a64:	e9d3 1000 	ldrd	r1, r0, [r3]
    1a68:	601d      	str	r5, [r3, #0]
    1a6a:	f44f 3380 	mov.w	r3, #65536	; 0x10000
    1a6e:	f8c4 3348 	str.w	r3, [r4, #840]	; 0x348
    1a72:	f8c4 5140 	str.w	r5, [r4, #320]	; 0x140
    1a76:	f8d4 3140 	ldr.w	r3, [r4, #320]	; 0x140
    1a7a:	f382 8811 	msr	BASEPRI, r2
    1a7e:	f3bf 8f6f 	isb	sy
    1a82:	2900      	cmp	r1, #0
    1a84:	d0e5      	beq.n	1a52 <rtc_nrf_isr+0x82>
    1a86:	9000      	str	r0, [sp, #0]
    1a88:	4632      	mov	r2, r6
    1a8a:	463b      	mov	r3, r7
    1a8c:	4628      	mov	r0, r5
    1a8e:	4788      	blx	r1
    1a90:	e7df      	b.n	1a52 <rtc_nrf_isr+0x82>
    1a92:	bf00      	nop
    1a94:	40011000 	.word	0x40011000
    1a98:	200007e8 	.word	0x200007e8
    1a9c:	200007e0 	.word	0x200007e0
    1aa0:	20000580 	.word	0x20000580

00001aa4 <sys_clock_set_timeout>:
    1aa4:	b530      	push	{r4, r5, lr}
    1aa6:	1c43      	adds	r3, r0, #1
    1aa8:	4c12      	ldr	r4, [pc, #72]	; (1af4 <sys_clock_set_timeout+0x50>)
    1aaa:	b085      	sub	sp, #20
    1aac:	d005      	beq.n	1aba <sys_clock_set_timeout+0x16>
    1aae:	4284      	cmp	r4, r0
    1ab0:	bfa8      	it	ge
    1ab2:	4604      	movge	r4, r0
    1ab4:	2c01      	cmp	r4, #1
    1ab6:	bfb8      	it	lt
    1ab8:	2401      	movlt	r4, #1
    1aba:	f7ff fe87 	bl	17cc <z_nrf_rtc_timer_read>
    1abe:	4b0e      	ldr	r3, [pc, #56]	; (1af8 <sys_clock_set_timeout+0x54>)
    1ac0:	4d0c      	ldr	r5, [pc, #48]	; (1af4 <sys_clock_set_timeout+0x50>)
    1ac2:	e9d3 1300 	ldrd	r1, r3, [r3]
    1ac6:	1a40      	subs	r0, r0, r1
    1ac8:	f5b0 0f00 	cmp.w	r0, #8388608	; 0x800000
    1acc:	d210      	bcs.n	1af0 <sys_clock_set_timeout+0x4c>
    1ace:	1822      	adds	r2, r4, r0
    1ad0:	42aa      	cmp	r2, r5
    1ad2:	bf28      	it	cs
    1ad4:	462a      	movcs	r2, r5
    1ad6:	1852      	adds	r2, r2, r1
    1ad8:	f04f 0000 	mov.w	r0, #0
    1adc:	4907      	ldr	r1, [pc, #28]	; (1afc <sys_clock_set_timeout+0x58>)
    1ade:	9100      	str	r1, [sp, #0]
    1ae0:	e9cd 0001 	strd	r0, r0, [sp, #4]
    1ae4:	f143 0300 	adc.w	r3, r3, #0
    1ae8:	f7ff fe92 	bl	1810 <compare_set>
    1aec:	b005      	add	sp, #20
    1aee:	bd30      	pop	{r4, r5, pc}
    1af0:	462a      	mov	r2, r5
    1af2:	e7f0      	b.n	1ad6 <sys_clock_set_timeout+0x32>
    1af4:	007fffff 	.word	0x007fffff
    1af8:	20000590 	.word	0x20000590
    1afc:	00001729 	.word	0x00001729

00001b00 <sys_clock_elapsed>:
    1b00:	b508      	push	{r3, lr}
    1b02:	f7ff fe63 	bl	17cc <z_nrf_rtc_timer_read>
    1b06:	4b02      	ldr	r3, [pc, #8]	; (1b10 <sys_clock_elapsed+0x10>)
    1b08:	681b      	ldr	r3, [r3, #0]
    1b0a:	1ac0      	subs	r0, r0, r3
    1b0c:	bd08      	pop	{r3, pc}
    1b0e:	bf00      	nop
    1b10:	20000590 	.word	0x20000590

00001b14 <nrf52_errata_103>:
    1b14:	f04f 5380 	mov.w	r3, #268435456	; 0x10000000
    1b18:	f8d3 2130 	ldr.w	r2, [r3, #304]	; 0x130
    1b1c:	2a08      	cmp	r2, #8
    1b1e:	d106      	bne.n	1b2e <nrf52_errata_103+0x1a>
    1b20:	f8d3 3134 	ldr.w	r3, [r3, #308]	; 0x134
    1b24:	2b05      	cmp	r3, #5
    1b26:	d802      	bhi.n	1b2e <nrf52_errata_103+0x1a>
    1b28:	4a02      	ldr	r2, [pc, #8]	; (1b34 <nrf52_errata_103+0x20>)
    1b2a:	5cd0      	ldrb	r0, [r2, r3]
    1b2c:	4770      	bx	lr
    1b2e:	2000      	movs	r0, #0
    1b30:	4770      	bx	lr
    1b32:	bf00      	nop
    1b34:	00004749 	.word	0x00004749

00001b38 <nvmc_wait>:
    1b38:	4a02      	ldr	r2, [pc, #8]	; (1b44 <nvmc_wait+0xc>)
    1b3a:	f8d2 3400 	ldr.w	r3, [r2, #1024]	; 0x400
    1b3e:	2b00      	cmp	r3, #0
    1b40:	d0fb      	beq.n	1b3a <nvmc_wait+0x2>
    1b42:	4770      	bx	lr
    1b44:	4001e000 	.word	0x4001e000

00001b48 <SystemInit>:
    1b48:	b510      	push	{r4, lr}
    1b4a:	f04f 5380 	mov.w	r3, #268435456	; 0x10000000
    1b4e:	f8d3 2130 	ldr.w	r2, [r3, #304]	; 0x130
    1b52:	2a08      	cmp	r2, #8
    1b54:	d14e      	bne.n	1bf4 <SystemInit+0xac>
    1b56:	f04f 4280 	mov.w	r2, #1073741824	; 0x40000000
    1b5a:	2100      	movs	r1, #0
    1b5c:	f8c2 110c 	str.w	r1, [r2, #268]	; 0x10c
    1b60:	f8c2 1110 	str.w	r1, [r2, #272]	; 0x110
    1b64:	f8c2 1538 	str.w	r1, [r2, #1336]	; 0x538
    1b68:	f502 4240 	add.w	r2, r2, #49152	; 0xc000
    1b6c:	f8d3 1404 	ldr.w	r1, [r3, #1028]	; 0x404
    1b70:	f8c2 1520 	str.w	r1, [r2, #1312]	; 0x520
    1b74:	f8d3 1408 	ldr.w	r1, [r3, #1032]	; 0x408
    1b78:	f8c2 1524 	str.w	r1, [r2, #1316]	; 0x524
    1b7c:	f8d3 140c 	ldr.w	r1, [r3, #1036]	; 0x40c
    1b80:	f8c2 1528 	str.w	r1, [r2, #1320]	; 0x528
    1b84:	f8d3 1410 	ldr.w	r1, [r3, #1040]	; 0x410
    1b88:	f8c2 152c 	str.w	r1, [r2, #1324]	; 0x52c
    1b8c:	f8d3 1414 	ldr.w	r1, [r3, #1044]	; 0x414
    1b90:	f8c2 1530 	str.w	r1, [r2, #1328]	; 0x530
    1b94:	f8d3 1418 	ldr.w	r1, [r3, #1048]	; 0x418
    1b98:	f8c2 1534 	str.w	r1, [r2, #1332]	; 0x534
    1b9c:	f8d3 141c 	ldr.w	r1, [r3, #1052]	; 0x41c
    1ba0:	f8c2 1540 	str.w	r1, [r2, #1344]	; 0x540
    1ba4:	f8d3 1420 	ldr.w	r1, [r3, #1056]	; 0x420
    1ba8:	f8c2 1544 	str.w	r1, [r2, #1348]	; 0x544
    1bac:	f8d3 1424 	ldr.w	r1, [r3, #1060]	; 0x424
    1bb0:	f8c2 1548 	str.w	r1, [r2, #1352]	; 0x548
    1bb4:	f8d3 1428 	ldr.w	r1, [r3, #1064]	; 0x428
    1bb8:	f8c2 154c 	str.w	r1, [r2, #1356]	; 0x54c
    1bbc:	f8d3 142c 	ldr.w	r1, [r3, #1068]	; 0x42c
    1bc0:	f8c2 1550 	str.w	r1, [r2, #1360]	; 0x550
    1bc4:	f8d3 1430 	ldr.w	r1, [r3, #1072]	; 0x430
    1bc8:	f8c2 1554 	str.w	r1, [r2, #1364]	; 0x554
    1bcc:	f8d3 1434 	ldr.w	r1, [r3, #1076]	; 0x434
    1bd0:	f8c2 1560 	str.w	r1, [r2, #1376]	; 0x560
    1bd4:	f8d3 1438 	ldr.w	r1, [r3, #1080]	; 0x438
    1bd8:	f8c2 1564 	str.w	r1, [r2, #1380]	; 0x564
    1bdc:	f8d3 143c 	ldr.w	r1, [r3, #1084]	; 0x43c
    1be0:	f8c2 1568 	str.w	r1, [r2, #1384]	; 0x568
    1be4:	f8d3 1440 	ldr.w	r1, [r3, #1088]	; 0x440
    1be8:	f8c2 156c 	str.w	r1, [r2, #1388]	; 0x56c
    1bec:	f8d3 3444 	ldr.w	r3, [r3, #1092]	; 0x444
    1bf0:	f8c2 3570 	str.w	r3, [r2, #1392]	; 0x570
    1bf4:	f7ff ff8e 	bl	1b14 <nrf52_errata_103>
    1bf8:	b118      	cbz	r0, 1c02 <SystemInit+0xba>
    1bfa:	4b3a      	ldr	r3, [pc, #232]	; (1ce4 <SystemInit+0x19c>)
    1bfc:	4a3a      	ldr	r2, [pc, #232]	; (1ce8 <SystemInit+0x1a0>)
    1bfe:	f8c3 268c 	str.w	r2, [r3, #1676]	; 0x68c
    1c02:	f7ff ff87 	bl	1b14 <nrf52_errata_103>
    1c06:	b118      	cbz	r0, 1c10 <SystemInit+0xc8>
    1c08:	4b38      	ldr	r3, [pc, #224]	; (1cec <SystemInit+0x1a4>)
    1c0a:	22fb      	movs	r2, #251	; 0xfb
    1c0c:	f8c3 2518 	str.w	r2, [r3, #1304]	; 0x518
    1c10:	f7ff ff80 	bl	1b14 <nrf52_errata_103>
    1c14:	b170      	cbz	r0, 1c34 <SystemInit+0xec>
    1c16:	f04f 4180 	mov.w	r1, #1073741824	; 0x40000000
    1c1a:	f04f 5380 	mov.w	r3, #268435456	; 0x10000000
    1c1e:	f8d1 2ee4 	ldr.w	r2, [r1, #3812]	; 0xee4
    1c22:	f8d3 3258 	ldr.w	r3, [r3, #600]	; 0x258
    1c26:	f022 020f 	bic.w	r2, r2, #15
    1c2a:	f003 030f 	and.w	r3, r3, #15
    1c2e:	4313      	orrs	r3, r2
    1c30:	f8c1 3ee4 	str.w	r3, [r1, #3812]	; 0xee4
    1c34:	f7ff ff6e 	bl	1b14 <nrf52_errata_103>
    1c38:	b120      	cbz	r0, 1c44 <SystemInit+0xfc>
    1c3a:	4b2d      	ldr	r3, [pc, #180]	; (1cf0 <SystemInit+0x1a8>)
    1c3c:	f44f 7200 	mov.w	r2, #512	; 0x200
    1c40:	f8c3 2640 	str.w	r2, [r3, #1600]	; 0x640
    1c44:	f04f 5380 	mov.w	r3, #268435456	; 0x10000000
    1c48:	f8d3 3130 	ldr.w	r3, [r3, #304]	; 0x130
    1c4c:	2b08      	cmp	r3, #8
    1c4e:	d11a      	bne.n	1c86 <SystemInit+0x13e>
    1c50:	f04f 4380 	mov.w	r3, #1073741824	; 0x40000000
    1c54:	f8d3 2400 	ldr.w	r2, [r3, #1024]	; 0x400
    1c58:	07d2      	lsls	r2, r2, #31
    1c5a:	bf44      	itt	mi
    1c5c:	f06f 0201 	mvnmi.w	r2, #1
    1c60:	f8c3 2400 	strmi.w	r2, [r3, #1024]	; 0x400
    1c64:	f04f 5380 	mov.w	r3, #268435456	; 0x10000000
    1c68:	f8d3 3134 	ldr.w	r3, [r3, #308]	; 0x134
    1c6c:	2b05      	cmp	r3, #5
    1c6e:	d802      	bhi.n	1c76 <SystemInit+0x12e>
    1c70:	4a20      	ldr	r2, [pc, #128]	; (1cf4 <SystemInit+0x1ac>)
    1c72:	5cd3      	ldrb	r3, [r2, r3]
    1c74:	b13b      	cbz	r3, 1c86 <SystemInit+0x13e>
    1c76:	f04f 2310 	mov.w	r3, #268439552	; 0x10001000
    1c7a:	f8d3 2208 	ldr.w	r2, [r3, #520]	; 0x208
    1c7e:	f04f 4380 	mov.w	r3, #1073741824	; 0x40000000
    1c82:	f8c3 2558 	str.w	r2, [r3, #1368]	; 0x558
    1c86:	f04f 2310 	mov.w	r3, #268439552	; 0x10001000
    1c8a:	f8d3 2200 	ldr.w	r2, [r3, #512]	; 0x200
    1c8e:	2a00      	cmp	r2, #0
    1c90:	db03      	blt.n	1c9a <SystemInit+0x152>
    1c92:	f8d3 3204 	ldr.w	r3, [r3, #516]	; 0x204
    1c96:	2b00      	cmp	r3, #0
    1c98:	da22      	bge.n	1ce0 <SystemInit+0x198>
    1c9a:	4917      	ldr	r1, [pc, #92]	; (1cf8 <SystemInit+0x1b0>)
    1c9c:	2301      	movs	r3, #1
    1c9e:	f04f 2010 	mov.w	r0, #268439552	; 0x10001000
    1ca2:	f8c1 3504 	str.w	r3, [r1, #1284]	; 0x504
    1ca6:	2412      	movs	r4, #18
    1ca8:	f7ff ff46 	bl	1b38 <nvmc_wait>
    1cac:	f8c0 4200 	str.w	r4, [r0, #512]	; 0x200
    1cb0:	f7ff ff42 	bl	1b38 <nvmc_wait>
    1cb4:	f8c0 4204 	str.w	r4, [r0, #516]	; 0x204
    1cb8:	f7ff ff3e 	bl	1b38 <nvmc_wait>
    1cbc:	2300      	movs	r3, #0
    1cbe:	f8c1 3504 	str.w	r3, [r1, #1284]	; 0x504
    1cc2:	f7ff ff39 	bl	1b38 <nvmc_wait>
    1cc6:	f3bf 8f4f 	dsb	sy
    1cca:	490c      	ldr	r1, [pc, #48]	; (1cfc <SystemInit+0x1b4>)
    1ccc:	4b0c      	ldr	r3, [pc, #48]	; (1d00 <SystemInit+0x1b8>)
    1cce:	68ca      	ldr	r2, [r1, #12]
    1cd0:	f402 62e0 	and.w	r2, r2, #1792	; 0x700
    1cd4:	4313      	orrs	r3, r2
    1cd6:	60cb      	str	r3, [r1, #12]
    1cd8:	f3bf 8f4f 	dsb	sy
    1cdc:	bf00      	nop
    1cde:	e7fd      	b.n	1cdc <SystemInit+0x194>
    1ce0:	bd10      	pop	{r4, pc}
    1ce2:	bf00      	nop
    1ce4:	40005000 	.word	0x40005000
    1ce8:	00038148 	.word	0x00038148
    1cec:	4000f000 	.word	0x4000f000
    1cf0:	40029000 	.word	0x40029000
    1cf4:	00004743 	.word	0x00004743
    1cf8:	4001e000 	.word	0x4001e000
    1cfc:	e000ed00 	.word	0xe000ed00
    1d00:	05fa0004 	.word	0x05fa0004

00001d04 <nrfx_flag32_alloc>:
    1d04:	b530      	push	{r4, r5, lr}
    1d06:	6804      	ldr	r4, [r0, #0]
    1d08:	b1cc      	cbz	r4, 1d3e <nrfx_flag32_alloc+0x3a>
    1d0a:	f3bf 8f5b 	dmb	ish
    1d0e:	fab4 f384 	clz	r3, r4
    1d12:	f1c3 031f 	rsb	r3, r3, #31
    1d16:	b2db      	uxtb	r3, r3
    1d18:	2201      	movs	r2, #1
    1d1a:	409a      	lsls	r2, r3
    1d1c:	ea24 0202 	bic.w	r2, r4, r2
    1d20:	e850 5f00 	ldrex	r5, [r0]
    1d24:	42a5      	cmp	r5, r4
    1d26:	d104      	bne.n	1d32 <nrfx_flag32_alloc+0x2e>
    1d28:	e840 2c00 	strex	ip, r2, [r0]
    1d2c:	f1bc 0f00 	cmp.w	ip, #0
    1d30:	d1f6      	bne.n	1d20 <nrfx_flag32_alloc+0x1c>
    1d32:	f3bf 8f5b 	dmb	ish
    1d36:	d1e6      	bne.n	1d06 <nrfx_flag32_alloc+0x2>
    1d38:	4802      	ldr	r0, [pc, #8]	; (1d44 <nrfx_flag32_alloc+0x40>)
    1d3a:	700b      	strb	r3, [r1, #0]
    1d3c:	bd30      	pop	{r4, r5, pc}
    1d3e:	4802      	ldr	r0, [pc, #8]	; (1d48 <nrfx_flag32_alloc+0x44>)
    1d40:	e7fc      	b.n	1d3c <nrfx_flag32_alloc+0x38>
    1d42:	bf00      	nop
    1d44:	0bad0000 	.word	0x0bad0000
    1d48:	0bad0002 	.word	0x0bad0002

00001d4c <nrfx_flag32_free>:
    1d4c:	b510      	push	{r4, lr}
    1d4e:	6803      	ldr	r3, [r0, #0]
    1d50:	40cb      	lsrs	r3, r1
    1d52:	07db      	lsls	r3, r3, #31
    1d54:	d414      	bmi.n	1d80 <nrfx_flag32_free+0x34>
    1d56:	2301      	movs	r3, #1
    1d58:	408b      	lsls	r3, r1
    1d5a:	6802      	ldr	r2, [r0, #0]
    1d5c:	f3bf 8f5b 	dmb	ish
    1d60:	ea43 0102 	orr.w	r1, r3, r2
    1d64:	e850 4f00 	ldrex	r4, [r0]
    1d68:	4294      	cmp	r4, r2
    1d6a:	d104      	bne.n	1d76 <nrfx_flag32_free+0x2a>
    1d6c:	e840 1c00 	strex	ip, r1, [r0]
    1d70:	f1bc 0f00 	cmp.w	ip, #0
    1d74:	d1f6      	bne.n	1d64 <nrfx_flag32_free+0x18>
    1d76:	f3bf 8f5b 	dmb	ish
    1d7a:	d1ee      	bne.n	1d5a <nrfx_flag32_free+0xe>
    1d7c:	4801      	ldr	r0, [pc, #4]	; (1d84 <nrfx_flag32_free+0x38>)
    1d7e:	bd10      	pop	{r4, pc}
    1d80:	4801      	ldr	r0, [pc, #4]	; (1d88 <nrfx_flag32_free+0x3c>)
    1d82:	e7fc      	b.n	1d7e <nrfx_flag32_free+0x32>
    1d84:	0bad0000 	.word	0x0bad0000
    1d88:	0bad0004 	.word	0x0bad0004

00001d8c <nrfx_gppi_channels_enable>:
    1d8c:	4b01      	ldr	r3, [pc, #4]	; (1d94 <nrfx_gppi_channels_enable+0x8>)
    1d8e:	f8c3 0504 	str.w	r0, [r3, #1284]	; 0x504
    1d92:	4770      	bx	lr
    1d94:	4001f000 	.word	0x4001f000

00001d98 <clock_stop>:
    1d98:	b5f7      	push	{r0, r1, r2, r4, r5, r6, r7, lr}
    1d9a:	4604      	mov	r4, r0
    1d9c:	b118      	cbz	r0, 1da6 <clock_stop+0xe>
    1d9e:	2801      	cmp	r0, #1
    1da0:	d023      	beq.n	1dea <clock_stop+0x52>
    1da2:	b003      	add	sp, #12
    1da4:	bdf0      	pop	{r4, r5, r6, r7, pc}
    1da6:	f04f 4380 	mov.w	r3, #1073741824	; 0x40000000
    1daa:	2202      	movs	r2, #2
    1dac:	f8c3 2308 	str.w	r2, [r3, #776]	; 0x308
    1db0:	2201      	movs	r2, #1
    1db2:	60da      	str	r2, [r3, #12]
    1db4:	f8c3 0104 	str.w	r0, [r3, #260]	; 0x104
    1db8:	f8d3 3104 	ldr.w	r3, [r3, #260]	; 0x104
    1dbc:	4606      	mov	r6, r0
    1dbe:	2301      	movs	r3, #1
    1dc0:	f88d 3007 	strb.w	r3, [sp, #7]
    1dc4:	f242 7510 	movw	r5, #10000	; 0x2710
    1dc8:	f04f 4780 	mov.w	r7, #1073741824	; 0x40000000
    1dcc:	b1d4      	cbz	r4, 1e04 <clock_stop+0x6c>
    1dce:	2c01      	cmp	r4, #1
    1dd0:	d1e7      	bne.n	1da2 <clock_stop+0xa>
    1dd2:	f8d7 340c 	ldr.w	r3, [r7, #1036]	; 0x40c
    1dd6:	f403 3380 	and.w	r3, r3, #65536	; 0x10000
    1dda:	bbae      	cbnz	r6, 1e48 <clock_stop+0xb0>
    1ddc:	b383      	cbz	r3, 1e40 <clock_stop+0xa8>
    1dde:	2001      	movs	r0, #1
    1de0:	f002 f891 	bl	3f06 <nrfx_busy_wait>
    1de4:	3d01      	subs	r5, #1
    1de6:	d1f4      	bne.n	1dd2 <clock_stop+0x3a>
    1de8:	e02a      	b.n	1e40 <clock_stop+0xa8>
    1dea:	f04f 4380 	mov.w	r3, #1073741824	; 0x40000000
    1dee:	2200      	movs	r2, #0
    1df0:	f8c3 0308 	str.w	r0, [r3, #776]	; 0x308
    1df4:	6058      	str	r0, [r3, #4]
    1df6:	f8c3 2100 	str.w	r2, [r3, #256]	; 0x100
    1dfa:	f8d3 3100 	ldr.w	r3, [r3, #256]	; 0x100
    1dfe:	f10d 0607 	add.w	r6, sp, #7
    1e02:	e7dc      	b.n	1dbe <clock_stop+0x26>
    1e04:	f8d7 3418 	ldr.w	r3, [r7, #1048]	; 0x418
    1e08:	f403 3380 	and.w	r3, r3, #65536	; 0x10000
    1e0c:	b93e      	cbnz	r6, 1e1e <clock_stop+0x86>
    1e0e:	2b00      	cmp	r3, #0
    1e10:	d0c7      	beq.n	1da2 <clock_stop+0xa>
    1e12:	2001      	movs	r0, #1
    1e14:	f002 f877 	bl	3f06 <nrfx_busy_wait>
    1e18:	3d01      	subs	r5, #1
    1e1a:	d1f3      	bne.n	1e04 <clock_stop+0x6c>
    1e1c:	e7c1      	b.n	1da2 <clock_stop+0xa>
    1e1e:	f8d7 2418 	ldr.w	r2, [r7, #1048]	; 0x418
    1e22:	f002 0203 	and.w	r2, r2, #3
    1e26:	6032      	str	r2, [r6, #0]
    1e28:	2b00      	cmp	r3, #0
    1e2a:	d0ba      	beq.n	1da2 <clock_stop+0xa>
    1e2c:	f89d 0007 	ldrb.w	r0, [sp, #7]
    1e30:	2801      	cmp	r0, #1
    1e32:	d103      	bne.n	1e3c <clock_stop+0xa4>
    1e34:	f002 f867 	bl	3f06 <nrfx_busy_wait>
    1e38:	3d01      	subs	r5, #1
    1e3a:	d1c7      	bne.n	1dcc <clock_stop+0x34>
    1e3c:	2c01      	cmp	r4, #1
    1e3e:	d1b0      	bne.n	1da2 <clock_stop+0xa>
    1e40:	4b05      	ldr	r3, [pc, #20]	; (1e58 <clock_stop+0xc0>)
    1e42:	2200      	movs	r2, #0
    1e44:	715a      	strb	r2, [r3, #5]
    1e46:	e7ac      	b.n	1da2 <clock_stop+0xa>
    1e48:	f8d7 240c 	ldr.w	r2, [r7, #1036]	; 0x40c
    1e4c:	f002 0201 	and.w	r2, r2, #1
    1e50:	7032      	strb	r2, [r6, #0]
    1e52:	2b00      	cmp	r3, #0
    1e54:	d1ea      	bne.n	1e2c <clock_stop+0x94>
    1e56:	e7f3      	b.n	1e40 <clock_stop+0xa8>
    1e58:	200007ec 	.word	0x200007ec

00001e5c <nrfx_clock_init>:
    1e5c:	4b04      	ldr	r3, [pc, #16]	; (1e70 <nrfx_clock_init+0x14>)
    1e5e:	791a      	ldrb	r2, [r3, #4]
    1e60:	b922      	cbnz	r2, 1e6c <nrfx_clock_init+0x10>
    1e62:	2201      	movs	r2, #1
    1e64:	6018      	str	r0, [r3, #0]
    1e66:	809a      	strh	r2, [r3, #4]
    1e68:	4802      	ldr	r0, [pc, #8]	; (1e74 <nrfx_clock_init+0x18>)
    1e6a:	4770      	bx	lr
    1e6c:	4802      	ldr	r0, [pc, #8]	; (1e78 <nrfx_clock_init+0x1c>)
    1e6e:	4770      	bx	lr
    1e70:	200007ec 	.word	0x200007ec
    1e74:	0bad0000 	.word	0x0bad0000
    1e78:	0bad000c 	.word	0x0bad000c

00001e7c <nrfx_clock_enable>:
    1e7c:	b508      	push	{r3, lr}
    1e7e:	4b07      	ldr	r3, [pc, #28]	; (1e9c <nrfx_clock_enable+0x20>)
    1e80:	681b      	ldr	r3, [r3, #0]
    1e82:	b12b      	cbz	r3, 1e90 <nrfx_clock_enable+0x14>
    1e84:	2000      	movs	r0, #0
    1e86:	f7fe fccd 	bl	824 <arch_irq_is_enabled>
    1e8a:	b908      	cbnz	r0, 1e90 <nrfx_clock_enable+0x14>
    1e8c:	f7fe fcbc 	bl	808 <arch_irq_enable>
    1e90:	f04f 4380 	mov.w	r3, #1073741824	; 0x40000000
    1e94:	2200      	movs	r2, #0
    1e96:	f8c3 2518 	str.w	r2, [r3, #1304]	; 0x518
    1e9a:	bd08      	pop	{r3, pc}
    1e9c:	200007ec 	.word	0x200007ec

00001ea0 <nrfx_clock_start>:
    1ea0:	b510      	push	{r4, lr}
    1ea2:	b110      	cbz	r0, 1eaa <nrfx_clock_start+0xa>
    1ea4:	2801      	cmp	r0, #1
    1ea6:	d043      	beq.n	1f30 <nrfx_clock_start+0x90>
    1ea8:	bd10      	pop	{r4, pc}
    1eaa:	f04f 4380 	mov.w	r3, #1073741824	; 0x40000000
    1eae:	f8d3 1418 	ldr.w	r1, [r3, #1048]	; 0x418
    1eb2:	f8d3 2418 	ldr.w	r2, [r3, #1048]	; 0x418
    1eb6:	03c8      	lsls	r0, r1, #15
    1eb8:	d521      	bpl.n	1efe <nrfx_clock_start+0x5e>
    1eba:	f002 0303 	and.w	r3, r2, #3
    1ebe:	2b01      	cmp	r3, #1
    1ec0:	d004      	beq.n	1ecc <nrfx_clock_start+0x2c>
    1ec2:	b113      	cbz	r3, 1eca <nrfx_clock_start+0x2a>
    1ec4:	2000      	movs	r0, #0
    1ec6:	f7ff ff67 	bl	1d98 <clock_stop>
    1eca:	2300      	movs	r3, #0
    1ecc:	f04f 4280 	mov.w	r2, #1073741824	; 0x40000000
    1ed0:	2002      	movs	r0, #2
    1ed2:	f8c2 3518 	str.w	r3, [r2, #1304]	; 0x518
    1ed6:	2208      	movs	r2, #8
    1ed8:	f44f 7382 	mov.w	r3, #260	; 0x104
    1edc:	f103 4380 	add.w	r3, r3, #1073741824	; 0x40000000
    1ee0:	2100      	movs	r1, #0
    1ee2:	6019      	str	r1, [r3, #0]
    1ee4:	f102 4280 	add.w	r2, r2, #1073741824	; 0x40000000
    1ee8:	681c      	ldr	r4, [r3, #0]
    1eea:	2401      	movs	r4, #1
    1eec:	6014      	str	r4, [r2, #0]
    1eee:	4a15      	ldr	r2, [pc, #84]	; (1f44 <nrfx_clock_start+0xa4>)
    1ef0:	6812      	ldr	r2, [r2, #0]
    1ef2:	b30a      	cbz	r2, 1f38 <nrfx_clock_start+0x98>
    1ef4:	f04f 4380 	mov.w	r3, #1073741824	; 0x40000000
    1ef8:	f8c3 0304 	str.w	r0, [r3, #772]	; 0x304
    1efc:	e7d4      	b.n	1ea8 <nrfx_clock_start+0x8>
    1efe:	f8d3 2414 	ldr.w	r2, [r3, #1044]	; 0x414
    1f02:	07d1      	lsls	r1, r2, #31
    1f04:	d5e1      	bpl.n	1eca <nrfx_clock_start+0x2a>
    1f06:	f8d3 241c 	ldr.w	r2, [r3, #1052]	; 0x41c
    1f0a:	0792      	lsls	r2, r2, #30
    1f0c:	d4da      	bmi.n	1ec4 <nrfx_clock_start+0x24>
    1f0e:	4a0d      	ldr	r2, [pc, #52]	; (1f44 <nrfx_clock_start+0xa4>)
    1f10:	6812      	ldr	r2, [r2, #0]
    1f12:	b11a      	cbz	r2, 1f1c <nrfx_clock_start+0x7c>
    1f14:	2202      	movs	r2, #2
    1f16:	f8c3 2304 	str.w	r2, [r3, #772]	; 0x304
    1f1a:	e7c5      	b.n	1ea8 <nrfx_clock_start+0x8>
    1f1c:	f8d3 2104 	ldr.w	r2, [r3, #260]	; 0x104
    1f20:	2a00      	cmp	r2, #0
    1f22:	d0fb      	beq.n	1f1c <nrfx_clock_start+0x7c>
    1f24:	2200      	movs	r2, #0
    1f26:	f8c3 2104 	str.w	r2, [r3, #260]	; 0x104
    1f2a:	f8d3 3104 	ldr.w	r3, [r3, #260]	; 0x104
    1f2e:	e7bb      	b.n	1ea8 <nrfx_clock_start+0x8>
    1f30:	2200      	movs	r2, #0
    1f32:	f44f 7380 	mov.w	r3, #256	; 0x100
    1f36:	e7d1      	b.n	1edc <nrfx_clock_start+0x3c>
    1f38:	681a      	ldr	r2, [r3, #0]
    1f3a:	2a00      	cmp	r2, #0
    1f3c:	d0fc      	beq.n	1f38 <nrfx_clock_start+0x98>
    1f3e:	6019      	str	r1, [r3, #0]
    1f40:	681b      	ldr	r3, [r3, #0]
    1f42:	e7b1      	b.n	1ea8 <nrfx_clock_start+0x8>
    1f44:	200007ec 	.word	0x200007ec

00001f48 <nrfx_power_clock_irq_handler>:
    1f48:	b510      	push	{r4, lr}
    1f4a:	f04f 4380 	mov.w	r3, #1073741824	; 0x40000000
    1f4e:	f8d3 2100 	ldr.w	r2, [r3, #256]	; 0x100
    1f52:	b16a      	cbz	r2, 1f70 <nrfx_power_clock_irq_handler+0x28>
    1f54:	2200      	movs	r2, #0
    1f56:	f8c3 2100 	str.w	r2, [r3, #256]	; 0x100
    1f5a:	f8d3 2100 	ldr.w	r2, [r3, #256]	; 0x100
    1f5e:	2201      	movs	r2, #1
    1f60:	f8c3 2308 	str.w	r2, [r3, #776]	; 0x308
    1f64:	4b11      	ldr	r3, [pc, #68]	; (1fac <nrfx_power_clock_irq_handler+0x64>)
    1f66:	7958      	ldrb	r0, [r3, #5]
    1f68:	b910      	cbnz	r0, 1f70 <nrfx_power_clock_irq_handler+0x28>
    1f6a:	715a      	strb	r2, [r3, #5]
    1f6c:	681b      	ldr	r3, [r3, #0]
    1f6e:	4798      	blx	r3
    1f70:	f04f 4380 	mov.w	r3, #1073741824	; 0x40000000
    1f74:	f8d3 2104 	ldr.w	r2, [r3, #260]	; 0x104
    1f78:	b172      	cbz	r2, 1f98 <nrfx_power_clock_irq_handler+0x50>
    1f7a:	2200      	movs	r2, #0
    1f7c:	f8c3 2104 	str.w	r2, [r3, #260]	; 0x104
    1f80:	f8d3 2104 	ldr.w	r2, [r3, #260]	; 0x104
    1f84:	f8d3 2418 	ldr.w	r2, [r3, #1048]	; 0x418
    1f88:	f8d3 2418 	ldr.w	r2, [r3, #1048]	; 0x418
    1f8c:	0792      	lsls	r2, r2, #30
    1f8e:	d104      	bne.n	1f9a <nrfx_power_clock_irq_handler+0x52>
    1f90:	2201      	movs	r2, #1
    1f92:	f8c3 2518 	str.w	r2, [r3, #1304]	; 0x518
    1f96:	609a      	str	r2, [r3, #8]
    1f98:	bd10      	pop	{r4, pc}
    1f9a:	2202      	movs	r2, #2
    1f9c:	f8c3 2308 	str.w	r2, [r3, #776]	; 0x308
    1fa0:	4b02      	ldr	r3, [pc, #8]	; (1fac <nrfx_power_clock_irq_handler+0x64>)
    1fa2:	e8bd 4010 	ldmia.w	sp!, {r4, lr}
    1fa6:	681b      	ldr	r3, [r3, #0]
    1fa8:	2001      	movs	r0, #1
    1faa:	4718      	bx	r3
    1fac:	200007ec 	.word	0x200007ec

00001fb0 <nrf_gpio_pin_port_decode>:
    1fb0:	6803      	ldr	r3, [r0, #0]
    1fb2:	f003 021f 	and.w	r2, r3, #31
    1fb6:	095b      	lsrs	r3, r3, #5
    1fb8:	6002      	str	r2, [r0, #0]
    1fba:	d004      	beq.n	1fc6 <nrf_gpio_pin_port_decode+0x16>
    1fbc:	2b01      	cmp	r3, #1
    1fbe:	4803      	ldr	r0, [pc, #12]	; (1fcc <nrf_gpio_pin_port_decode+0x1c>)
    1fc0:	bf18      	it	ne
    1fc2:	2000      	movne	r0, #0
    1fc4:	4770      	bx	lr
    1fc6:	f04f 40a0 	mov.w	r0, #1342177280	; 0x50000000
    1fca:	4770      	bx	lr
    1fcc:	50000300 	.word	0x50000300

00001fd0 <get_pin_idx>:
    1fd0:	4a03      	ldr	r2, [pc, #12]	; (1fe0 <get_pin_idx+0x10>)
    1fd2:	0943      	lsrs	r3, r0, #5
    1fd4:	f000 001f 	and.w	r0, r0, #31
    1fd8:	5cd3      	ldrb	r3, [r2, r3]
    1fda:	4418      	add	r0, r3
    1fdc:	b2c0      	uxtb	r0, r0
    1fde:	4770      	bx	lr
    1fe0:	0000474f 	.word	0x0000474f

00001fe4 <call_handler.constprop.0>:
    1fe4:	b570      	push	{r4, r5, r6, lr}
    1fe6:	4605      	mov	r5, r0
    1fe8:	f7ff fff2 	bl	1fd0 <get_pin_idx>
    1fec:	4c0c      	ldr	r4, [pc, #48]	; (2020 <call_handler.constprop.0+0x3c>)
    1fee:	3008      	adds	r0, #8
    1ff0:	460e      	mov	r6, r1
    1ff2:	f834 3010 	ldrh.w	r3, [r4, r0, lsl #1]
    1ff6:	05da      	lsls	r2, r3, #23
    1ff8:	d508      	bpl.n	200c <call_handler.constprop.0+0x28>
    1ffa:	f3c3 2343 	ubfx	r3, r3, #9, #4
    1ffe:	eb04 02c3 	add.w	r2, r4, r3, lsl #3
    2002:	4628      	mov	r0, r5
    2004:	f854 3033 	ldr.w	r3, [r4, r3, lsl #3]
    2008:	6852      	ldr	r2, [r2, #4]
    200a:	4798      	blx	r3
    200c:	68a3      	ldr	r3, [r4, #8]
    200e:	b12b      	cbz	r3, 201c <call_handler.constprop.0+0x38>
    2010:	68e2      	ldr	r2, [r4, #12]
    2012:	4631      	mov	r1, r6
    2014:	4628      	mov	r0, r5
    2016:	e8bd 4070 	ldmia.w	sp!, {r4, r5, r6, lr}
    201a:	4718      	bx	r3
    201c:	bd70      	pop	{r4, r5, r6, pc}
    201e:	bf00      	nop
    2020:	200004e8 	.word	0x200004e8

00002024 <pin_te_get.constprop.0>:
    2024:	b508      	push	{r3, lr}
    2026:	f7ff ffd3 	bl	1fd0 <get_pin_idx>
    202a:	4b03      	ldr	r3, [pc, #12]	; (2038 <pin_te_get.constprop.0+0x14>)
    202c:	3008      	adds	r0, #8
    202e:	f833 0010 	ldrh.w	r0, [r3, r0, lsl #1]
    2032:	0b40      	lsrs	r0, r0, #13
    2034:	bd08      	pop	{r3, pc}
    2036:	bf00      	nop
    2038:	200004e8 	.word	0x200004e8

0000203c <pin_is_output.constprop.0>:
    203c:	b508      	push	{r3, lr}
    203e:	f7ff ffc7 	bl	1fd0 <get_pin_idx>
    2042:	4b03      	ldr	r3, [pc, #12]	; (2050 <pin_is_output.constprop.0+0x14>)
    2044:	3008      	adds	r0, #8
    2046:	f833 0010 	ldrh.w	r0, [r3, r0, lsl #1]
    204a:	f3c0 0040 	ubfx	r0, r0, #1, #1
    204e:	bd08      	pop	{r3, pc}
    2050:	200004e8 	.word	0x200004e8

00002054 <pin_in_use_by_te.constprop.0>:
    2054:	b508      	push	{r3, lr}
    2056:	f7ff ffbb 	bl	1fd0 <get_pin_idx>
    205a:	4b03      	ldr	r3, [pc, #12]	; (2068 <pin_in_use_by_te.constprop.0+0x14>)
    205c:	3008      	adds	r0, #8
    205e:	f833 0010 	ldrh.w	r0, [r3, r0, lsl #1]
    2062:	f3c0 1040 	ubfx	r0, r0, #5, #1
    2066:	bd08      	pop	{r3, pc}
    2068:	200004e8 	.word	0x200004e8

0000206c <latch_pending_read_and_check>:
    206c:	4603      	mov	r3, r0
    206e:	f011 0001 	ands.w	r0, r1, #1
    2072:	b510      	push	{r4, lr}
    2074:	b2cc      	uxtb	r4, r1
    2076:	d10d      	bne.n	2094 <latch_pending_read_and_check+0x28>
    2078:	07a2      	lsls	r2, r4, #30
    207a:	f3c4 0040 	ubfx	r0, r4, #1, #1
    207e:	d512      	bpl.n	20a6 <latch_pending_read_and_check+0x3a>
    2080:	4a09      	ldr	r2, [pc, #36]	; (20a8 <latch_pending_read_and_check+0x3c>)
    2082:	f8d2 0520 	ldr.w	r0, [r2, #1312]	; 0x520
    2086:	6058      	str	r0, [r3, #4]
    2088:	f8c2 0520 	str.w	r0, [r2, #1312]	; 0x520
    208c:	3800      	subs	r0, #0
    208e:	bf18      	it	ne
    2090:	2001      	movne	r0, #1
    2092:	e008      	b.n	20a6 <latch_pending_read_and_check+0x3a>
    2094:	f04f 41a0 	mov.w	r1, #1342177280	; 0x50000000
    2098:	f8d1 2520 	ldr.w	r2, [r1, #1312]	; 0x520
    209c:	601a      	str	r2, [r3, #0]
    209e:	f8c1 2520 	str.w	r2, [r1, #1312]	; 0x520
    20a2:	2a00      	cmp	r2, #0
    20a4:	d0e8      	beq.n	2078 <latch_pending_read_and_check+0xc>
    20a6:	bd10      	pop	{r4, pc}
    20a8:	50000300 	.word	0x50000300

000020ac <release_handler.isra.0>:
    20ac:	b510      	push	{r4, lr}
    20ae:	f7ff ff8f 	bl	1fd0 <get_pin_idx>
    20b2:	4a12      	ldr	r2, [pc, #72]	; (20fc <release_handler.isra.0+0x50>)
    20b4:	3008      	adds	r0, #8
    20b6:	f832 3010 	ldrh.w	r3, [r2, r0, lsl #1]
    20ba:	05d9      	lsls	r1, r3, #23
    20bc:	d51c      	bpl.n	20f8 <release_handler.isra.0+0x4c>
    20be:	f3c3 2143 	ubfx	r1, r3, #9, #4
    20c2:	f423 53f8 	bic.w	r3, r3, #7936	; 0x1f00
    20c6:	f822 3010 	strh.w	r3, [r2, r0, lsl #1]
    20ca:	f102 040e 	add.w	r4, r2, #14
    20ce:	2000      	movs	r0, #0
    20d0:	f834 3f02 	ldrh.w	r3, [r4, #2]!
    20d4:	f413 7f80 	tst.w	r3, #256	; 0x100
    20d8:	d003      	beq.n	20e2 <release_handler.isra.0+0x36>
    20da:	f3c3 2343 	ubfx	r3, r3, #9, #4
    20de:	4299      	cmp	r1, r3
    20e0:	d00a      	beq.n	20f8 <release_handler.isra.0+0x4c>
    20e2:	3001      	adds	r0, #1
    20e4:	2830      	cmp	r0, #48	; 0x30
    20e6:	d1f3      	bne.n	20d0 <release_handler.isra.0+0x24>
    20e8:	2300      	movs	r3, #0
    20ea:	f842 3031 	str.w	r3, [r2, r1, lsl #3]
    20ee:	4804      	ldr	r0, [pc, #16]	; (2100 <release_handler.isra.0+0x54>)
    20f0:	e8bd 4010 	ldmia.w	sp!, {r4, lr}
    20f4:	f7ff be2a 	b.w	1d4c <nrfx_flag32_free>
    20f8:	bd10      	pop	{r4, pc}
    20fa:	bf00      	nop
    20fc:	200004e8 	.word	0x200004e8
    2100:	20000560 	.word	0x20000560

00002104 <__nrfy_internal_gpiote_events_process.constprop.0>:
    2104:	b5f0      	push	{r4, r5, r6, r7, lr}
    2106:	4605      	mov	r5, r0
    2108:	2000      	movs	r0, #0
    210a:	4604      	mov	r4, r0
    210c:	2601      	movs	r6, #1
    210e:	4607      	mov	r7, r0
    2110:	428c      	cmp	r4, r1
    2112:	d10b      	bne.n	212c <__nrfy_internal_gpiote_events_process.constprop.0+0x28>
    2114:	4b11      	ldr	r3, [pc, #68]	; (215c <__nrfy_internal_gpiote_events_process.constprop.0+0x58>)
    2116:	f8d3 217c 	ldr.w	r2, [r3, #380]	; 0x17c
    211a:	b132      	cbz	r2, 212a <__nrfy_internal_gpiote_events_process.constprop.0+0x26>
    211c:	2200      	movs	r2, #0
    211e:	f8c3 217c 	str.w	r2, [r3, #380]	; 0x17c
    2122:	f8d3 317c 	ldr.w	r3, [r3, #380]	; 0x17c
    2126:	f040 4000 	orr.w	r0, r0, #2147483648	; 0x80000000
    212a:	bdf0      	pop	{r4, r5, r6, r7, pc}
    212c:	b2e3      	uxtb	r3, r4
    212e:	009b      	lsls	r3, r3, #2
    2130:	f503 7280 	add.w	r2, r3, #256	; 0x100
    2134:	089b      	lsrs	r3, r3, #2
    2136:	fa06 f303 	lsl.w	r3, r6, r3
    213a:	421d      	tst	r5, r3
    213c:	d00b      	beq.n	2156 <__nrfy_internal_gpiote_events_process.constprop.0+0x52>
    213e:	f102 4280 	add.w	r2, r2, #1073741824	; 0x40000000
    2142:	f502 42c0 	add.w	r2, r2, #24576	; 0x6000
    2146:	f8d2 c000 	ldr.w	ip, [r2]
    214a:	f1bc 0f00 	cmp.w	ip, #0
    214e:	d002      	beq.n	2156 <__nrfy_internal_gpiote_events_process.constprop.0+0x52>
    2150:	6017      	str	r7, [r2, #0]
    2152:	6812      	ldr	r2, [r2, #0]
    2154:	4318      	orrs	r0, r3
    2156:	3401      	adds	r4, #1
    2158:	e7da      	b.n	2110 <__nrfy_internal_gpiote_events_process.constprop.0+0xc>
    215a:	bf00      	nop
    215c:	40006000 	.word	0x40006000

00002160 <pin_uninit>:
    2160:	b5f7      	push	{r0, r1, r2, r4, r5, r6, r7, lr}
    2162:	4606      	mov	r6, r0
    2164:	4608      	mov	r0, r1
    2166:	f7ff ff33 	bl	1fd0 <get_pin_idx>
    216a:	4f19      	ldr	r7, [pc, #100]	; (21d0 <pin_uninit+0x70>)
    216c:	f100 0508 	add.w	r5, r0, #8
    2170:	460c      	mov	r4, r1
    2172:	f837 3015 	ldrh.w	r3, [r7, r5, lsl #1]
    2176:	07db      	lsls	r3, r3, #31
    2178:	d527      	bpl.n	21ca <pin_uninit+0x6a>
    217a:	4630      	mov	r0, r6
    217c:	f001 ff29 	bl	3fd2 <pin_trigger_disable>
    2180:	4620      	mov	r0, r4
    2182:	f7ff ff67 	bl	2054 <pin_in_use_by_te.constprop.0>
    2186:	b140      	cbz	r0, 219a <pin_uninit+0x3a>
    2188:	4620      	mov	r0, r4
    218a:	f7ff ff4b 	bl	2024 <pin_te_get.constprop.0>
    218e:	6831      	ldr	r1, [r6, #0]
    2190:	f500 70a2 	add.w	r0, r0, #324	; 0x144
    2194:	2300      	movs	r3, #0
    2196:	f841 3020 	str.w	r3, [r1, r0, lsl #2]
    219a:	4620      	mov	r0, r4
    219c:	f7ff ff86 	bl	20ac <release_handler.isra.0>
    21a0:	2300      	movs	r3, #0
    21a2:	a801      	add	r0, sp, #4
    21a4:	f827 3015 	strh.w	r3, [r7, r5, lsl #1]
    21a8:	9401      	str	r4, [sp, #4]
    21aa:	f7ff ff01 	bl	1fb0 <nrf_gpio_pin_port_decode>
    21ae:	9b01      	ldr	r3, [sp, #4]
    21b0:	eb00 0083 	add.w	r0, r0, r3, lsl #2
    21b4:	4b07      	ldr	r3, [pc, #28]	; (21d4 <pin_uninit+0x74>)
    21b6:	f8d0 2700 	ldr.w	r2, [r0, #1792]	; 0x700
    21ba:	4013      	ands	r3, r2
    21bc:	f043 0302 	orr.w	r3, r3, #2
    21c0:	f8c0 3700 	str.w	r3, [r0, #1792]	; 0x700
    21c4:	4804      	ldr	r0, [pc, #16]	; (21d8 <pin_uninit+0x78>)
    21c6:	b003      	add	sp, #12
    21c8:	bdf0      	pop	{r4, r5, r6, r7, pc}
    21ca:	4804      	ldr	r0, [pc, #16]	; (21dc <pin_uninit+0x7c>)
    21cc:	e7fb      	b.n	21c6 <pin_uninit+0x66>
    21ce:	bf00      	nop
    21d0:	200004e8 	.word	0x200004e8
    21d4:	fffcf8f0 	.word	0xfffcf8f0
    21d8:	0bad0000 	.word	0x0bad0000
    21dc:	0bad0004 	.word	0x0bad0004

000021e0 <nrfx_gpiote_input_configure>:
    21e0:	e92d 41ff 	stmdb	sp!, {r0, r1, r2, r3, r4, r5, r6, r7, r8, lr}
    21e4:	4616      	mov	r6, r2
    21e6:	4680      	mov	r8, r0
    21e8:	4608      	mov	r0, r1
    21ea:	f7ff fef1 	bl	1fd0 <get_pin_idx>
    21ee:	460d      	mov	r5, r1
    21f0:	6831      	ldr	r1, [r6, #0]
    21f2:	4604      	mov	r4, r0
    21f4:	b309      	cbz	r1, 223a <nrfx_gpiote_input_configure+0x5a>
    21f6:	4628      	mov	r0, r5
    21f8:	f7ff ff20 	bl	203c <pin_is_output.constprop.0>
    21fc:	b118      	cbz	r0, 2206 <nrfx_gpiote_input_configure+0x26>
    21fe:	4628      	mov	r0, r5
    2200:	f7ff ff28 	bl	2054 <pin_in_use_by_te.constprop.0>
    2204:	bb10      	cbnz	r0, 224c <nrfx_gpiote_input_configure+0x6c>
    2206:	2300      	movs	r3, #0
    2208:	e9cd 3300 	strd	r3, r3, [sp]
    220c:	f88d 300e 	strb.w	r3, [sp, #14]
    2210:	f88d 300f 	strb.w	r3, [sp, #15]
    2214:	f10d 020f 	add.w	r2, sp, #15
    2218:	460b      	mov	r3, r1
    221a:	4628      	mov	r0, r5
    221c:	f10d 010e 	add.w	r1, sp, #14
    2220:	f001 fe7f 	bl	3f22 <nrf_gpio_reconfigure>
    2224:	4a47      	ldr	r2, [pc, #284]	; (2344 <nrfx_gpiote_input_configure+0x164>)
    2226:	f104 0108 	add.w	r1, r4, #8
    222a:	f832 3011 	ldrh.w	r3, [r2, r1, lsl #1]
    222e:	f023 0302 	bic.w	r3, r3, #2
    2232:	f043 0301 	orr.w	r3, r3, #1
    2236:	f822 3011 	strh.w	r3, [r2, r1, lsl #1]
    223a:	6873      	ldr	r3, [r6, #4]
    223c:	b363      	cbz	r3, 2298 <nrfx_gpiote_input_configure+0xb8>
    223e:	4628      	mov	r0, r5
    2240:	781f      	ldrb	r7, [r3, #0]
    2242:	6859      	ldr	r1, [r3, #4]
    2244:	f7ff fefa 	bl	203c <pin_is_output.constprop.0>
    2248:	b110      	cbz	r0, 2250 <nrfx_gpiote_input_configure+0x70>
    224a:	b1d1      	cbz	r1, 2282 <nrfx_gpiote_input_configure+0xa2>
    224c:	483e      	ldr	r0, [pc, #248]	; (2348 <nrfx_gpiote_input_configure+0x168>)
    224e:	e026      	b.n	229e <nrfx_gpiote_input_configure+0xbe>
    2250:	4a3c      	ldr	r2, [pc, #240]	; (2344 <nrfx_gpiote_input_configure+0x164>)
    2252:	f104 0008 	add.w	r0, r4, #8
    2256:	f832 3010 	ldrh.w	r3, [r2, r0, lsl #1]
    225a:	f023 0320 	bic.w	r3, r3, #32
    225e:	04db      	lsls	r3, r3, #19
    2260:	0cdb      	lsrs	r3, r3, #19
    2262:	f822 3010 	strh.w	r3, [r2, r0, lsl #1]
    2266:	b161      	cbz	r1, 2282 <nrfx_gpiote_input_configure+0xa2>
    2268:	2f03      	cmp	r7, #3
    226a:	d8ef      	bhi.n	224c <nrfx_gpiote_input_configure+0x6c>
    226c:	6871      	ldr	r1, [r6, #4]
    226e:	6849      	ldr	r1, [r1, #4]
    2270:	f891 c000 	ldrb.w	ip, [r1]
    2274:	f8d8 1000 	ldr.w	r1, [r8]
    2278:	b9a7      	cbnz	r7, 22a4 <nrfx_gpiote_input_configure+0xc4>
    227a:	f50c 7ca2 	add.w	ip, ip, #324	; 0x144
    227e:	f841 702c 	str.w	r7, [r1, ip, lsl #2]
    2282:	4a30      	ldr	r2, [pc, #192]	; (2344 <nrfx_gpiote_input_configure+0x164>)
    2284:	f104 0108 	add.w	r1, r4, #8
    2288:	f832 3011 	ldrh.w	r3, [r2, r1, lsl #1]
    228c:	f023 031c 	bic.w	r3, r3, #28
    2290:	ea43 0387 	orr.w	r3, r3, r7, lsl #2
    2294:	f822 3011 	strh.w	r3, [r2, r1, lsl #1]
    2298:	68b3      	ldr	r3, [r6, #8]
    229a:	bb4b      	cbnz	r3, 22f0 <nrfx_gpiote_input_configure+0x110>
    229c:	482b      	ldr	r0, [pc, #172]	; (234c <nrfx_gpiote_input_configure+0x16c>)
    229e:	b004      	add	sp, #16
    22a0:	e8bd 81f0 	ldmia.w	sp!, {r4, r5, r6, r7, r8, pc}
    22a4:	eb01 018c 	add.w	r1, r1, ip, lsl #2
    22a8:	ea43 334c 	orr.w	r3, r3, ip, lsl #13
    22ac:	f8d1 e510 	ldr.w	lr, [r1, #1296]	; 0x510
    22b0:	f02e 0e03 	bic.w	lr, lr, #3
    22b4:	f8c1 e510 	str.w	lr, [r1, #1296]	; 0x510
    22b8:	f8d8 1000 	ldr.w	r1, [r8]
    22bc:	eb01 0e8c 	add.w	lr, r1, ip, lsl #2
    22c0:	f043 0320 	orr.w	r3, r3, #32
    22c4:	f8de 1510 	ldr.w	r1, [lr, #1296]	; 0x510
    22c8:	f822 3010 	strh.w	r3, [r2, r0, lsl #1]
    22cc:	f421 314f 	bic.w	r1, r1, #211968	; 0x33c00
    22d0:	f421 7140 	bic.w	r1, r1, #768	; 0x300
    22d4:	f8ce 1510 	str.w	r1, [lr, #1296]	; 0x510
    22d8:	0229      	lsls	r1, r5, #8
    22da:	f8de 8510 	ldr.w	r8, [lr, #1296]	; 0x510
    22de:	f401 517c 	and.w	r1, r1, #16128	; 0x3f00
    22e2:	ea41 4107 	orr.w	r1, r1, r7, lsl #16
    22e6:	ea41 0108 	orr.w	r1, r1, r8
    22ea:	f8ce 1510 	str.w	r1, [lr, #1296]	; 0x510
    22ee:	e7c8      	b.n	2282 <nrfx_gpiote_input_configure+0xa2>
    22f0:	e9d3 6700 	ldrd	r6, r7, [r3]
    22f4:	4628      	mov	r0, r5
    22f6:	f7ff fed9 	bl	20ac <release_handler.isra.0>
    22fa:	2e00      	cmp	r6, #0
    22fc:	d0ce      	beq.n	229c <nrfx_gpiote_input_configure+0xbc>
    22fe:	4d11      	ldr	r5, [pc, #68]	; (2344 <nrfx_gpiote_input_configure+0x164>)
    2300:	e9d5 2300 	ldrd	r2, r3, [r5]
    2304:	4296      	cmp	r6, r2
    2306:	d103      	bne.n	2310 <nrfx_gpiote_input_configure+0x130>
    2308:	429f      	cmp	r7, r3
    230a:	d101      	bne.n	2310 <nrfx_gpiote_input_configure+0x130>
    230c:	2200      	movs	r2, #0
    230e:	e009      	b.n	2324 <nrfx_gpiote_input_configure+0x144>
    2310:	480f      	ldr	r0, [pc, #60]	; (2350 <nrfx_gpiote_input_configure+0x170>)
    2312:	f10d 010f 	add.w	r1, sp, #15
    2316:	f7ff fcf5 	bl	1d04 <nrfx_flag32_alloc>
    231a:	4b0c      	ldr	r3, [pc, #48]	; (234c <nrfx_gpiote_input_configure+0x16c>)
    231c:	4298      	cmp	r0, r3
    231e:	d1be      	bne.n	229e <nrfx_gpiote_input_configure+0xbe>
    2320:	f89d 200f 	ldrb.w	r2, [sp, #15]
    2324:	f845 6032 	str.w	r6, [r5, r2, lsl #3]
    2328:	eb05 03c2 	add.w	r3, r5, r2, lsl #3
    232c:	3408      	adds	r4, #8
    232e:	605f      	str	r7, [r3, #4]
    2330:	f835 3014 	ldrh.w	r3, [r5, r4, lsl #1]
    2334:	ea43 2342 	orr.w	r3, r3, r2, lsl #9
    2338:	f443 7380 	orr.w	r3, r3, #256	; 0x100
    233c:	f825 3014 	strh.w	r3, [r5, r4, lsl #1]
    2340:	e7ac      	b.n	229c <nrfx_gpiote_input_configure+0xbc>
    2342:	bf00      	nop
    2344:	200004e8 	.word	0x200004e8
    2348:	0bad0004 	.word	0x0bad0004
    234c:	0bad0000 	.word	0x0bad0000
    2350:	20000560 	.word	0x20000560

00002354 <nrfx_gpiote_output_configure>:
    2354:	e92d 43f0 	stmdb	sp!, {r4, r5, r6, r7, r8, r9, lr}
    2358:	460c      	mov	r4, r1
    235a:	b085      	sub	sp, #20
    235c:	4680      	mov	r8, r0
    235e:	4620      	mov	r0, r4
    2360:	4611      	mov	r1, r2
    2362:	461e      	mov	r6, r3
    2364:	f7ff fe34 	bl	1fd0 <get_pin_idx>
    2368:	4605      	mov	r5, r0
    236a:	b329      	cbz	r1, 23b8 <nrfx_gpiote_output_configure+0x64>
    236c:	4620      	mov	r0, r4
    236e:	f7ff fe65 	bl	203c <pin_is_output.constprop.0>
    2372:	b918      	cbnz	r0, 237c <nrfx_gpiote_output_configure+0x28>
    2374:	4620      	mov	r0, r4
    2376:	f7ff fe6d 	bl	2054 <pin_in_use_by_te.constprop.0>
    237a:	bb18      	cbnz	r0, 23c4 <nrfx_gpiote_output_configure+0x70>
    237c:	4f31      	ldr	r7, [pc, #196]	; (2444 <nrfx_gpiote_output_configure+0xf0>)
    237e:	f105 0908 	add.w	r9, r5, #8
    2382:	f837 3019 	ldrh.w	r3, [r7, r9, lsl #1]
    2386:	f013 0f1c 	tst.w	r3, #28
    238a:	d002      	beq.n	2392 <nrfx_gpiote_output_configure+0x3e>
    238c:	784b      	ldrb	r3, [r1, #1]
    238e:	2b01      	cmp	r3, #1
    2390:	d018      	beq.n	23c4 <nrfx_gpiote_output_configure+0x70>
    2392:	2301      	movs	r3, #1
    2394:	f88d 300f 	strb.w	r3, [sp, #15]
    2398:	2300      	movs	r3, #0
    239a:	e9cd 1300 	strd	r1, r3, [sp]
    239e:	1c4a      	adds	r2, r1, #1
    23a0:	1c8b      	adds	r3, r1, #2
    23a2:	4620      	mov	r0, r4
    23a4:	f10d 010f 	add.w	r1, sp, #15
    23a8:	f001 fdbb 	bl	3f22 <nrf_gpio_reconfigure>
    23ac:	f837 3019 	ldrh.w	r3, [r7, r9, lsl #1]
    23b0:	f043 0303 	orr.w	r3, r3, #3
    23b4:	f827 3019 	strh.w	r3, [r7, r9, lsl #1]
    23b8:	2e00      	cmp	r6, #0
    23ba:	d041      	beq.n	2440 <nrfx_gpiote_output_configure+0xec>
    23bc:	4620      	mov	r0, r4
    23be:	f7ff fe3d 	bl	203c <pin_is_output.constprop.0>
    23c2:	b918      	cbnz	r0, 23cc <nrfx_gpiote_output_configure+0x78>
    23c4:	4820      	ldr	r0, [pc, #128]	; (2448 <nrfx_gpiote_output_configure+0xf4>)
    23c6:	b005      	add	sp, #20
    23c8:	e8bd 83f0 	ldmia.w	sp!, {r4, r5, r6, r7, r8, r9, pc}
    23cc:	f896 c000 	ldrb.w	ip, [r6]
    23d0:	f8d8 3000 	ldr.w	r3, [r8]
    23d4:	4f1b      	ldr	r7, [pc, #108]	; (2444 <nrfx_gpiote_output_configure+0xf0>)
    23d6:	f50c 72a2 	add.w	r2, ip, #324	; 0x144
    23da:	2100      	movs	r1, #0
    23dc:	f843 1022 	str.w	r1, [r3, r2, lsl #2]
    23e0:	f105 0208 	add.w	r2, r5, #8
    23e4:	f837 1012 	ldrh.w	r1, [r7, r2, lsl #1]
    23e8:	f021 0120 	bic.w	r1, r1, #32
    23ec:	04c9      	lsls	r1, r1, #19
    23ee:	0cc9      	lsrs	r1, r1, #19
    23f0:	f827 1012 	strh.w	r1, [r7, r2, lsl #1]
    23f4:	7875      	ldrb	r5, [r6, #1]
    23f6:	b31d      	cbz	r5, 2440 <nrfx_gpiote_output_configure+0xec>
    23f8:	f8d8 0000 	ldr.w	r0, [r8]
    23fc:	78b6      	ldrb	r6, [r6, #2]
    23fe:	eb00 008c 	add.w	r0, r0, ip, lsl #2
    2402:	042d      	lsls	r5, r5, #16
    2404:	f8d0 3510 	ldr.w	r3, [r0, #1296]	; 0x510
    2408:	f423 1399 	bic.w	r3, r3, #1253376	; 0x132000
    240c:	f423 53f8 	bic.w	r3, r3, #7936	; 0x1f00
    2410:	f8c0 3510 	str.w	r3, [r0, #1296]	; 0x510
    2414:	0223      	lsls	r3, r4, #8
    2416:	f403 537c 	and.w	r3, r3, #16128	; 0x3f00
    241a:	f405 3540 	and.w	r5, r5, #196608	; 0x30000
    241e:	0536      	lsls	r6, r6, #20
    2420:	f8d0 e510 	ldr.w	lr, [r0, #1296]	; 0x510
    2424:	432b      	orrs	r3, r5
    2426:	f406 1680 	and.w	r6, r6, #1048576	; 0x100000
    242a:	ea41 314c 	orr.w	r1, r1, ip, lsl #13
    242e:	4333      	orrs	r3, r6
    2430:	f041 0120 	orr.w	r1, r1, #32
    2434:	ea43 030e 	orr.w	r3, r3, lr
    2438:	f827 1012 	strh.w	r1, [r7, r2, lsl #1]
    243c:	f8c0 3510 	str.w	r3, [r0, #1296]	; 0x510
    2440:	4802      	ldr	r0, [pc, #8]	; (244c <nrfx_gpiote_output_configure+0xf8>)
    2442:	e7c0      	b.n	23c6 <nrfx_gpiote_output_configure+0x72>
    2444:	200004e8 	.word	0x200004e8
    2448:	0bad0004 	.word	0x0bad0004
    244c:	0bad0000 	.word	0x0bad0000

00002450 <nrfx_gpiote_global_callback_set>:
    2450:	4b01      	ldr	r3, [pc, #4]	; (2458 <nrfx_gpiote_global_callback_set+0x8>)
    2452:	e9c3 1202 	strd	r1, r2, [r3, #8]
    2456:	4770      	bx	lr
    2458:	200004e8 	.word	0x200004e8

0000245c <nrfx_gpiote_channel_get>:
    245c:	b510      	push	{r4, lr}
    245e:	4608      	mov	r0, r1
    2460:	4614      	mov	r4, r2
    2462:	f7ff fdf7 	bl	2054 <pin_in_use_by_te.constprop.0>
    2466:	b150      	cbz	r0, 247e <nrfx_gpiote_channel_get+0x22>
    2468:	4608      	mov	r0, r1
    246a:	f7ff fdb1 	bl	1fd0 <get_pin_idx>
    246e:	4b05      	ldr	r3, [pc, #20]	; (2484 <nrfx_gpiote_channel_get+0x28>)
    2470:	3008      	adds	r0, #8
    2472:	f833 3010 	ldrh.w	r3, [r3, r0, lsl #1]
    2476:	4804      	ldr	r0, [pc, #16]	; (2488 <nrfx_gpiote_channel_get+0x2c>)
    2478:	0b5b      	lsrs	r3, r3, #13
    247a:	7023      	strb	r3, [r4, #0]
    247c:	bd10      	pop	{r4, pc}
    247e:	4803      	ldr	r0, [pc, #12]	; (248c <nrfx_gpiote_channel_get+0x30>)
    2480:	e7fc      	b.n	247c <nrfx_gpiote_channel_get+0x20>
    2482:	bf00      	nop
    2484:	200004e8 	.word	0x200004e8
    2488:	0bad0000 	.word	0x0bad0000
    248c:	0bad0004 	.word	0x0bad0004

00002490 <nrfx_gpiote_init>:
    2490:	b570      	push	{r4, r5, r6, lr}
    2492:	4d16      	ldr	r5, [pc, #88]	; (24ec <nrfx_gpiote_init+0x5c>)
    2494:	f895 4080 	ldrb.w	r4, [r5, #128]	; 0x80
    2498:	4606      	mov	r6, r0
    249a:	bb2c      	cbnz	r4, 24e8 <nrfx_gpiote_init+0x58>
    249c:	4621      	mov	r1, r4
    249e:	2260      	movs	r2, #96	; 0x60
    24a0:	f105 0010 	add.w	r0, r5, #16
    24a4:	f001 ff5e 	bl	4364 <memset>
    24a8:	6830      	ldr	r0, [r6, #0]
    24aa:	6f2e      	ldr	r6, [r5, #112]	; 0x70
    24ac:	4621      	mov	r1, r4
    24ae:	428e      	cmp	r6, r1
    24b0:	d10e      	bne.n	24d0 <nrfx_gpiote_init+0x40>
    24b2:	2300      	movs	r3, #0
    24b4:	f8c0 317c 	str.w	r3, [r0, #380]	; 0x17c
    24b8:	f8d0 317c 	ldr.w	r3, [r0, #380]	; 0x17c
    24bc:	f340 3007 	sbfx	r0, r0, #12, #8
    24c0:	f7fe f9a2 	bl	808 <arch_irq_enable>
    24c4:	2301      	movs	r3, #1
    24c6:	480a      	ldr	r0, [pc, #40]	; (24f0 <nrfx_gpiote_init+0x60>)
    24c8:	f885 3080 	strb.w	r3, [r5, #128]	; 0x80
    24cc:	67ab      	str	r3, [r5, #120]	; 0x78
    24ce:	bd70      	pop	{r4, r5, r6, pc}
    24d0:	b2cb      	uxtb	r3, r1
    24d2:	009b      	lsls	r3, r3, #2
    24d4:	f503 7280 	add.w	r2, r3, #256	; 0x100
    24d8:	2b7c      	cmp	r3, #124	; 0x7c
    24da:	bf08      	it	eq
    24dc:	5084      	streq	r4, [r0, r2]
    24de:	f101 0101 	add.w	r1, r1, #1
    24e2:	bf08      	it	eq
    24e4:	5883      	ldreq	r3, [r0, r2]
    24e6:	e7e2      	b.n	24ae <nrfx_gpiote_init+0x1e>
    24e8:	4802      	ldr	r0, [pc, #8]	; (24f4 <nrfx_gpiote_init+0x64>)
    24ea:	e7f0      	b.n	24ce <nrfx_gpiote_init+0x3e>
    24ec:	200004e8 	.word	0x200004e8
    24f0:	0bad0000 	.word	0x0bad0000
    24f4:	0bad000c 	.word	0x0bad000c

000024f8 <nrfx_gpiote_init_check>:
    24f8:	4b03      	ldr	r3, [pc, #12]	; (2508 <nrfx_gpiote_init_check+0x10>)
    24fa:	f893 0080 	ldrb.w	r0, [r3, #128]	; 0x80
    24fe:	3800      	subs	r0, #0
    2500:	bf18      	it	ne
    2502:	2001      	movne	r0, #1
    2504:	4770      	bx	lr
    2506:	bf00      	nop
    2508:	200004e8 	.word	0x200004e8

0000250c <nrfx_gpiote_channel_free>:
    250c:	4801      	ldr	r0, [pc, #4]	; (2514 <nrfx_gpiote_channel_free+0x8>)
    250e:	f7ff bc1d 	b.w	1d4c <nrfx_flag32_free>
    2512:	bf00      	nop
    2514:	2000055c 	.word	0x2000055c

00002518 <nrfx_gpiote_channel_alloc>:
    2518:	4801      	ldr	r0, [pc, #4]	; (2520 <nrfx_gpiote_channel_alloc+0x8>)
    251a:	f7ff bbf3 	b.w	1d04 <nrfx_flag32_alloc>
    251e:	bf00      	nop
    2520:	2000055c 	.word	0x2000055c

00002524 <nrfx_gpiote_trigger_enable>:
    2524:	b573      	push	{r0, r1, r4, r5, r6, lr}
    2526:	6803      	ldr	r3, [r0, #0]
    2528:	4616      	mov	r6, r2
    252a:	f8d3 2304 	ldr.w	r2, [r3, #772]	; 0x304
    252e:	2a00      	cmp	r2, #0
    2530:	bfa8      	it	ge
    2532:	f04f 4200 	movge.w	r2, #2147483648	; 0x80000000
    2536:	4605      	mov	r5, r0
    2538:	bfa8      	it	ge
    253a:	f8c3 2304 	strge.w	r2, [r3, #772]	; 0x304
    253e:	4608      	mov	r0, r1
    2540:	460c      	mov	r4, r1
    2542:	f7ff fd87 	bl	2054 <pin_in_use_by_te.constprop.0>
    2546:	b300      	cbz	r0, 258a <nrfx_gpiote_trigger_enable+0x66>
    2548:	4608      	mov	r0, r1
    254a:	f7ff fd77 	bl	203c <pin_is_output.constprop.0>
    254e:	4601      	mov	r1, r0
    2550:	b9d8      	cbnz	r0, 258a <nrfx_gpiote_trigger_enable+0x66>
    2552:	4620      	mov	r0, r4
    2554:	f7ff fd66 	bl	2024 <pin_te_get.constprop.0>
    2558:	b204      	sxth	r4, r0
    255a:	00a4      	lsls	r4, r4, #2
    255c:	f504 7280 	add.w	r2, r4, #256	; 0x100
    2560:	4603      	mov	r3, r0
    2562:	6828      	ldr	r0, [r5, #0]
    2564:	5081      	str	r1, [r0, r2]
    2566:	6829      	ldr	r1, [r5, #0]
    2568:	5882      	ldr	r2, [r0, r2]
    256a:	4421      	add	r1, r4
    256c:	f8d1 2510 	ldr.w	r2, [r1, #1296]	; 0x510
    2570:	f042 0201 	orr.w	r2, r2, #1
    2574:	f8c1 2510 	str.w	r2, [r1, #1296]	; 0x510
    2578:	b12e      	cbz	r6, 2586 <nrfx_gpiote_trigger_enable+0x62>
    257a:	6829      	ldr	r1, [r5, #0]
    257c:	2201      	movs	r2, #1
    257e:	fa02 f303 	lsl.w	r3, r2, r3
    2582:	f8c1 3304 	str.w	r3, [r1, #772]	; 0x304
    2586:	b002      	add	sp, #8
    2588:	bd70      	pop	{r4, r5, r6, pc}
    258a:	4620      	mov	r0, r4
    258c:	f7ff fd20 	bl	1fd0 <get_pin_idx>
    2590:	4b0f      	ldr	r3, [pc, #60]	; (25d0 <nrfx_gpiote_trigger_enable+0xac>)
    2592:	3008      	adds	r0, #8
    2594:	f833 3010 	ldrh.w	r3, [r3, r0, lsl #1]
    2598:	f3c3 0382 	ubfx	r3, r3, #2, #3
    259c:	2b04      	cmp	r3, #4
    259e:	d012      	beq.n	25c6 <nrfx_gpiote_trigger_enable+0xa2>
    25a0:	2b05      	cmp	r3, #5
    25a2:	d012      	beq.n	25ca <nrfx_gpiote_trigger_enable+0xa6>
    25a4:	a801      	add	r0, sp, #4
    25a6:	9401      	str	r4, [sp, #4]
    25a8:	f7ff fd02 	bl	1fb0 <nrf_gpio_pin_port_decode>
    25ac:	9a01      	ldr	r2, [sp, #4]
    25ae:	f8d0 3510 	ldr.w	r3, [r0, #1296]	; 0x510
    25b2:	40d3      	lsrs	r3, r2
    25b4:	f003 0301 	and.w	r3, r3, #1
    25b8:	1c99      	adds	r1, r3, #2
    25ba:	4620      	mov	r0, r4
    25bc:	b002      	add	sp, #8
    25be:	e8bd 4070 	ldmia.w	sp!, {r4, r5, r6, lr}
    25c2:	f001 bcf7 	b.w	3fb4 <nrf_gpio_cfg_sense_set>
    25c6:	2103      	movs	r1, #3
    25c8:	e7f7      	b.n	25ba <nrfx_gpiote_trigger_enable+0x96>
    25ca:	2102      	movs	r1, #2
    25cc:	e7f5      	b.n	25ba <nrfx_gpiote_trigger_enable+0x96>
    25ce:	bf00      	nop
    25d0:	200004e8 	.word	0x200004e8

000025d4 <nrfx_gpiote_0_irq_handler>:
    25d4:	e92d 4ff0 	stmdb	sp!, {r4, r5, r6, r7, r8, r9, sl, fp, lr}
    25d8:	4b69      	ldr	r3, [pc, #420]	; (2780 <nrfx_gpiote_0_irq_handler+0x1ac>)
    25da:	f8df 81a8 	ldr.w	r8, [pc, #424]	; 2784 <nrfx_gpiote_0_irq_handler+0x1b0>
    25de:	f8d3 0304 	ldr.w	r0, [r3, #772]	; 0x304
    25e2:	f8d8 1070 	ldr.w	r1, [r8, #112]	; 0x70
    25e6:	b2c0      	uxtb	r0, r0
    25e8:	b089      	sub	sp, #36	; 0x24
    25ea:	f040 4000 	orr.w	r0, r0, #2147483648	; 0x80000000
    25ee:	f7ff fd89 	bl	2104 <__nrfy_internal_gpiote_events_process.constprop.0>
    25f2:	1e05      	subs	r5, r0, #0
    25f4:	da2f      	bge.n	2656 <nrfx_gpiote_0_irq_handler+0x82>
    25f6:	46c2      	mov	sl, r8
    25f8:	2300      	movs	r3, #0
    25fa:	f85a 1f7c 	ldr.w	r1, [sl, #124]!
    25fe:	a806      	add	r0, sp, #24
    2600:	e9cd 3306 	strd	r3, r3, [sp, #24]
    2604:	f7ff fd32 	bl	206c <latch_pending_read_and_check>
    2608:	4b5f      	ldr	r3, [pc, #380]	; (2788 <nrfx_gpiote_0_irq_handler+0x1b4>)
    260a:	9301      	str	r3, [sp, #4]
    260c:	f10d 0918 	add.w	r9, sp, #24
    2610:	f04f 0b00 	mov.w	fp, #0
    2614:	9a01      	ldr	r2, [sp, #4]
    2616:	f812 3b01 	ldrb.w	r3, [r2], #1
    261a:	9201      	str	r2, [sp, #4]
    261c:	08da      	lsrs	r2, r3, #3
    261e:	f003 0307 	and.w	r3, r3, #7
    2622:	f81a 2002 	ldrb.w	r2, [sl, r2]
    2626:	fa22 f303 	lsr.w	r3, r2, r3
    262a:	07da      	lsls	r2, r3, #31
    262c:	d41c      	bmi.n	2668 <nrfx_gpiote_0_irq_handler+0x94>
    262e:	f109 0904 	add.w	r9, r9, #4
    2632:	f1bb 0f00 	cmp.w	fp, #0
    2636:	d014      	beq.n	2662 <nrfx_gpiote_0_irq_handler+0x8e>
    2638:	f8d8 1070 	ldr.w	r1, [r8, #112]	; 0x70
    263c:	f04f 4000 	mov.w	r0, #2147483648	; 0x80000000
    2640:	f7ff fd60 	bl	2104 <__nrfy_internal_gpiote_events_process.constprop.0>
    2644:	f8d8 107c 	ldr.w	r1, [r8, #124]	; 0x7c
    2648:	a806      	add	r0, sp, #24
    264a:	f7ff fd0f 	bl	206c <latch_pending_read_and_check>
    264e:	2800      	cmp	r0, #0
    2650:	d1da      	bne.n	2608 <nrfx_gpiote_0_irq_handler+0x34>
    2652:	f025 4500 	bic.w	r5, r5, #2147483648	; 0x80000000
    2656:	2401      	movs	r4, #1
    2658:	2d00      	cmp	r5, #0
    265a:	d179      	bne.n	2750 <nrfx_gpiote_0_irq_handler+0x17c>
    265c:	b009      	add	sp, #36	; 0x24
    265e:	e8bd 8ff0 	ldmia.w	sp!, {r4, r5, r6, r7, r8, r9, sl, fp, pc}
    2662:	f04f 0b01 	mov.w	fp, #1
    2666:	e7d5      	b.n	2614 <nrfx_gpiote_0_irq_handler+0x40>
    2668:	4b48      	ldr	r3, [pc, #288]	; (278c <nrfx_gpiote_0_irq_handler+0x1b8>)
    266a:	445b      	add	r3, fp
    266c:	9302      	str	r3, [sp, #8]
    266e:	f8d9 1000 	ldr.w	r1, [r9]
    2672:	2900      	cmp	r1, #0
    2674:	d0db      	beq.n	262e <nrfx_gpiote_0_irq_handler+0x5a>
    2676:	9b02      	ldr	r3, [sp, #8]
    2678:	fa91 f1a1 	rbit	r1, r1
    267c:	781c      	ldrb	r4, [r3, #0]
    267e:	fab1 f181 	clz	r1, r1
    2682:	ea41 1444 	orr.w	r4, r1, r4, lsl #5
    2686:	4620      	mov	r0, r4
    2688:	f7ff fca2 	bl	1fd0 <get_pin_idx>
    268c:	3008      	adds	r0, #8
    268e:	9405      	str	r4, [sp, #20]
    2690:	f838 7010 	ldrh.w	r7, [r8, r0, lsl #1]
    2694:	08c8      	lsrs	r0, r1, #3
    2696:	08bb      	lsrs	r3, r7, #2
    2698:	f819 2000 	ldrb.w	r2, [r9, r0]
    269c:	9303      	str	r3, [sp, #12]
    269e:	f001 0107 	and.w	r1, r1, #7
    26a2:	2301      	movs	r3, #1
    26a4:	fa03 f101 	lsl.w	r1, r3, r1
    26a8:	ea22 0201 	bic.w	r2, r2, r1
    26ac:	f809 2000 	strb.w	r2, [r9, r0]
    26b0:	a805      	add	r0, sp, #20
    26b2:	f7ff fc7d 	bl	1fb0 <nrf_gpio_pin_port_decode>
    26b6:	9a05      	ldr	r2, [sp, #20]
    26b8:	9b03      	ldr	r3, [sp, #12]
    26ba:	f502 72e0 	add.w	r2, r2, #448	; 0x1c0
    26be:	f3c7 0682 	ubfx	r6, r7, #2, #3
    26c2:	f850 2022 	ldr.w	r2, [r0, r2, lsl #2]
    26c6:	075b      	lsls	r3, r3, #29
    26c8:	4637      	mov	r7, r6
    26ca:	f3c2 4201 	ubfx	r2, r2, #16, #2
    26ce:	d524      	bpl.n	271a <nrfx_gpiote_0_irq_handler+0x146>
    26d0:	4620      	mov	r0, r4
    26d2:	4639      	mov	r1, r7
    26d4:	b2d6      	uxtb	r6, r2
    26d6:	f7ff fc85 	bl	1fe4 <call_handler.constprop.0>
    26da:	a805      	add	r0, sp, #20
    26dc:	9405      	str	r4, [sp, #20]
    26de:	f7ff fc67 	bl	1fb0 <nrf_gpio_pin_port_decode>
    26e2:	9b05      	ldr	r3, [sp, #20]
    26e4:	f503 73e0 	add.w	r3, r3, #448	; 0x1c0
    26e8:	f850 3023 	ldr.w	r3, [r0, r3, lsl #2]
    26ec:	f3c3 4301 	ubfx	r3, r3, #16, #2
    26f0:	429e      	cmp	r6, r3
    26f2:	d107      	bne.n	2704 <nrfx_gpiote_0_irq_handler+0x130>
    26f4:	2100      	movs	r1, #0
    26f6:	4620      	mov	r0, r4
    26f8:	f001 fc5c 	bl	3fb4 <nrf_gpio_cfg_sense_set>
    26fc:	4631      	mov	r1, r6
    26fe:	4620      	mov	r0, r4
    2700:	f001 fc58 	bl	3fb4 <nrf_gpio_cfg_sense_set>
    2704:	a805      	add	r0, sp, #20
    2706:	9405      	str	r4, [sp, #20]
    2708:	f7ff fc52 	bl	1fb0 <nrf_gpio_pin_port_decode>
    270c:	9b05      	ldr	r3, [sp, #20]
    270e:	2201      	movs	r2, #1
    2710:	fa02 f303 	lsl.w	r3, r2, r3
    2714:	f8c0 3520 	str.w	r3, [r0, #1312]	; 0x520
    2718:	e7a9      	b.n	266e <nrfx_gpiote_0_irq_handler+0x9a>
    271a:	2a02      	cmp	r2, #2
    271c:	d10c      	bne.n	2738 <nrfx_gpiote_0_irq_handler+0x164>
    271e:	2103      	movs	r1, #3
    2720:	4620      	mov	r0, r4
    2722:	f001 fc47 	bl	3fb4 <nrf_gpio_cfg_sense_set>
    2726:	f006 0305 	and.w	r3, r6, #5
    272a:	2b01      	cmp	r3, #1
    272c:	d1ea      	bne.n	2704 <nrfx_gpiote_0_irq_handler+0x130>
    272e:	4639      	mov	r1, r7
    2730:	4620      	mov	r0, r4
    2732:	f7ff fc57 	bl	1fe4 <call_handler.constprop.0>
    2736:	e7e5      	b.n	2704 <nrfx_gpiote_0_irq_handler+0x130>
    2738:	2102      	movs	r1, #2
    273a:	4620      	mov	r0, r4
    273c:	9203      	str	r2, [sp, #12]
    273e:	f001 fc39 	bl	3fb4 <nrf_gpio_cfg_sense_set>
    2742:	2e03      	cmp	r6, #3
    2744:	d0f3      	beq.n	272e <nrfx_gpiote_0_irq_handler+0x15a>
    2746:	9a03      	ldr	r2, [sp, #12]
    2748:	2a03      	cmp	r2, #3
    274a:	d1db      	bne.n	2704 <nrfx_gpiote_0_irq_handler+0x130>
    274c:	2e02      	cmp	r6, #2
    274e:	e7ed      	b.n	272c <nrfx_gpiote_0_irq_handler+0x158>
    2750:	fa95 f3a5 	rbit	r3, r5
    2754:	fab3 f383 	clz	r3, r3
    2758:	fa04 f203 	lsl.w	r2, r4, r3
    275c:	009b      	lsls	r3, r3, #2
    275e:	f103 4380 	add.w	r3, r3, #1073741824	; 0x40000000
    2762:	f503 43c0 	add.w	r3, r3, #24576	; 0x6000
    2766:	ea25 0502 	bic.w	r5, r5, r2
    276a:	f8d3 0510 	ldr.w	r0, [r3, #1296]	; 0x510
    276e:	f8d3 1510 	ldr.w	r1, [r3, #1296]	; 0x510
    2772:	f3c0 2005 	ubfx	r0, r0, #8, #6
    2776:	f3c1 4101 	ubfx	r1, r1, #16, #2
    277a:	f7ff fc33 	bl	1fe4 <call_handler.constprop.0>
    277e:	e76b      	b.n	2658 <nrfx_gpiote_0_irq_handler+0x84>
    2780:	40006000 	.word	0x40006000
    2784:	200004e8 	.word	0x200004e8
    2788:	0000475f 	.word	0x0000475f
    278c:	0000475f 	.word	0x0000475f

00002790 <nrfx_ppi_channel_alloc>:
    2790:	4601      	mov	r1, r0
    2792:	4801      	ldr	r0, [pc, #4]	; (2798 <nrfx_ppi_channel_alloc+0x8>)
    2794:	f7ff bab6 	b.w	1d04 <nrfx_flag32_alloc>
    2798:	2000056c 	.word	0x2000056c

0000279c <_DoInit>:
    279c:	b508      	push	{r3, lr}
    279e:	4b14      	ldr	r3, [pc, #80]	; (27f0 <_DoInit+0x54>)
    27a0:	22a8      	movs	r2, #168	; 0xa8
    27a2:	2100      	movs	r1, #0
    27a4:	4618      	mov	r0, r3
    27a6:	f001 fddd 	bl	4364 <memset>
    27aa:	2203      	movs	r2, #3
    27ac:	6102      	str	r2, [r0, #16]
    27ae:	4911      	ldr	r1, [pc, #68]	; (27f4 <_DoInit+0x58>)
    27b0:	6142      	str	r2, [r0, #20]
    27b2:	4a11      	ldr	r2, [pc, #68]	; (27f8 <_DoInit+0x5c>)
    27b4:	6181      	str	r1, [r0, #24]
    27b6:	61c2      	str	r2, [r0, #28]
    27b8:	f44f 6280 	mov.w	r2, #1024	; 0x400
    27bc:	6202      	str	r2, [r0, #32]
    27be:	2200      	movs	r2, #0
    27c0:	6282      	str	r2, [r0, #40]	; 0x28
    27c2:	6242      	str	r2, [r0, #36]	; 0x24
    27c4:	62c2      	str	r2, [r0, #44]	; 0x2c
    27c6:	6601      	str	r1, [r0, #96]	; 0x60
    27c8:	490c      	ldr	r1, [pc, #48]	; (27fc <_DoInit+0x60>)
    27ca:	6641      	str	r1, [r0, #100]	; 0x64
    27cc:	2110      	movs	r1, #16
    27ce:	6681      	str	r1, [r0, #104]	; 0x68
    27d0:	4603      	mov	r3, r0
    27d2:	6702      	str	r2, [r0, #112]	; 0x70
    27d4:	66c2      	str	r2, [r0, #108]	; 0x6c
    27d6:	6742      	str	r2, [r0, #116]	; 0x74
    27d8:	f3bf 8f5f 	dmb	sy
    27dc:	4908      	ldr	r1, [pc, #32]	; (2800 <_DoInit+0x64>)
    27de:	f811 0d01 	ldrb.w	r0, [r1, #-1]!
    27e2:	5498      	strb	r0, [r3, r2]
    27e4:	3201      	adds	r2, #1
    27e6:	2a10      	cmp	r2, #16
    27e8:	d1f9      	bne.n	27de <_DoInit+0x42>
    27ea:	f3bf 8f5f 	dmb	sy
    27ee:	bd08      	pop	{r3, pc}
    27f0:	20000410 	.word	0x20000410
    27f4:	00004761 	.word	0x00004761
    27f8:	20000010 	.word	0x20000010
    27fc:	20000000 	.word	0x20000000
    2800:	0000477a 	.word	0x0000477a

00002804 <z_fatal_error>:
    2804:	b538      	push	{r3, r4, r5, lr}
    2806:	f3ef 8511 	mrs	r5, BASEPRI
    280a:	2320      	movs	r3, #32
    280c:	f383 8812 	msr	BASEPRI_MAX, r3
    2810:	f3bf 8f6f 	isb	sy
    2814:	4b06      	ldr	r3, [pc, #24]	; (2830 <z_fatal_error+0x2c>)
    2816:	689c      	ldr	r4, [r3, #8]
    2818:	f001 fc22 	bl	4060 <k_sys_fatal_error_handler>
    281c:	f385 8811 	msr	BASEPRI, r5
    2820:	f3bf 8f6f 	isb	sy
    2824:	4620      	mov	r0, r4
    2826:	e8bd 4038 	ldmia.w	sp!, {r3, r4, r5, lr}
    282a:	f7fd bf71 	b.w	710 <z_impl_k_thread_abort>
    282e:	bf00      	nop
    2830:	200007f4 	.word	0x200007f4

00002834 <z_sys_init_run_level>:
    2834:	b538      	push	{r3, r4, r5, lr}
    2836:	4b09      	ldr	r3, [pc, #36]	; (285c <z_sys_init_run_level+0x28>)
    2838:	f853 4020 	ldr.w	r4, [r3, r0, lsl #2]
    283c:	3001      	adds	r0, #1
    283e:	f853 5020 	ldr.w	r5, [r3, r0, lsl #2]
    2842:	42a5      	cmp	r5, r4
    2844:	d800      	bhi.n	2848 <z_sys_init_run_level+0x14>
    2846:	bd38      	pop	{r3, r4, r5, pc}
    2848:	6863      	ldr	r3, [r4, #4]
    284a:	b123      	cbz	r3, 2856 <z_sys_init_run_level+0x22>
    284c:	4620      	mov	r0, r4
    284e:	f001 fc0a 	bl	4066 <do_device_init>
    2852:	3408      	adds	r4, #8
    2854:	e7f5      	b.n	2842 <z_sys_init_run_level+0xe>
    2856:	6823      	ldr	r3, [r4, #0]
    2858:	4798      	blx	r3
    285a:	e7fa      	b.n	2852 <z_sys_init_run_level+0x1e>
    285c:	000046b0 	.word	0x000046b0

00002860 <bg_thread_main>:
    2860:	b570      	push	{r4, r5, r6, lr}
    2862:	4b2b      	ldr	r3, [pc, #172]	; (2910 <bg_thread_main+0xb0>)
    2864:	4c2b      	ldr	r4, [pc, #172]	; (2914 <bg_thread_main+0xb4>)
    2866:	4d2c      	ldr	r5, [pc, #176]	; (2918 <bg_thread_main+0xb8>)
    2868:	2201      	movs	r2, #1
    286a:	b086      	sub	sp, #24
    286c:	2003      	movs	r0, #3
    286e:	701a      	strb	r2, [r3, #0]
    2870:	f7ff ffe0 	bl	2834 <z_sys_init_run_level>
    2874:	f000 fde2 	bl	343c <boot_banner>
    2878:	f001 fc11 	bl	409e <z_init_static>
    287c:	2004      	movs	r0, #4
    287e:	f7ff ffd9 	bl	2834 <z_sys_init_run_level>
    2882:	4626      	mov	r6, r4
    2884:	42ae      	cmp	r6, r5
    2886:	f104 0430 	add.w	r4, r4, #48	; 0x30
    288a:	d310      	bcc.n	28ae <bg_thread_main+0x4e>
    288c:	f000 fb14 	bl	2eb8 <k_sched_lock>
    2890:	4c20      	ldr	r4, [pc, #128]	; (2914 <bg_thread_main+0xb4>)
    2892:	4e22      	ldr	r6, [pc, #136]	; (291c <bg_thread_main+0xbc>)
    2894:	42ac      	cmp	r4, r5
    2896:	d326      	bcc.n	28e6 <bg_thread_main+0x86>
    2898:	f000 fb22 	bl	2ee0 <k_sched_unlock>
    289c:	f7fd fc30 	bl	100 <main>
    28a0:	4a1f      	ldr	r2, [pc, #124]	; (2920 <bg_thread_main+0xc0>)
    28a2:	7b13      	ldrb	r3, [r2, #12]
    28a4:	f023 0301 	bic.w	r3, r3, #1
    28a8:	7313      	strb	r3, [r2, #12]
    28aa:	b006      	add	sp, #24
    28ac:	bd70      	pop	{r4, r5, r6, pc}
    28ae:	f854 3c0c 	ldr.w	r3, [r4, #-12]
    28b2:	9305      	str	r3, [sp, #20]
    28b4:	f854 3c10 	ldr.w	r3, [r4, #-16]
    28b8:	9304      	str	r3, [sp, #16]
    28ba:	f854 3c14 	ldr.w	r3, [r4, #-20]
    28be:	9303      	str	r3, [sp, #12]
    28c0:	f854 3c18 	ldr.w	r3, [r4, #-24]
    28c4:	9302      	str	r3, [sp, #8]
    28c6:	f854 3c1c 	ldr.w	r3, [r4, #-28]
    28ca:	9301      	str	r3, [sp, #4]
    28cc:	f854 3c20 	ldr.w	r3, [r4, #-32]
    28d0:	9300      	str	r3, [sp, #0]
    28d2:	e954 230a 	ldrd	r2, r3, [r4, #-40]	; 0x28
    28d6:	e954 010c 	ldrd	r0, r1, [r4, #-48]	; 0x30
    28da:	f000 f91f 	bl	2b1c <z_setup_new_thread>
    28de:	f854 3c30 	ldr.w	r3, [r4, #-48]
    28e2:	655e      	str	r6, [r3, #84]	; 0x54
    28e4:	e7cd      	b.n	2882 <bg_thread_main+0x22>
    28e6:	e9d4 230a 	ldrd	r2, r3, [r4, #40]	; 0x28
    28ea:	f1b3 3fff 	cmp.w	r3, #4294967295	; 0xffffffff
    28ee:	bf08      	it	eq
    28f0:	f1b2 3fff 	cmpeq.w	r2, #4294967295	; 0xffffffff
    28f4:	d005      	beq.n	2902 <bg_thread_main+0xa2>
    28f6:	ea52 0103 	orrs.w	r1, r2, r3
    28fa:	6820      	ldr	r0, [r4, #0]
    28fc:	d103      	bne.n	2906 <bg_thread_main+0xa6>
    28fe:	f001 fbe0 	bl	40c2 <z_impl_k_thread_start>
    2902:	3430      	adds	r4, #48	; 0x30
    2904:	e7c6      	b.n	2894 <bg_thread_main+0x34>
    2906:	4631      	mov	r1, r6
    2908:	3018      	adds	r0, #24
    290a:	f000 fc9d 	bl	3248 <z_add_timeout>
    290e:	e7f8      	b.n	2902 <bg_thread_main+0xa2>
    2910:	20000827 	.word	0x20000827
    2914:	00004598 	.word	0x00004598
    2918:	00004598 	.word	0x00004598
    291c:	000041cf 	.word	0x000041cf
    2920:	20000620 	.word	0x20000620

00002924 <z_bss_zero>:
    2924:	b508      	push	{r3, lr}
    2926:	4803      	ldr	r0, [pc, #12]	; (2934 <z_bss_zero+0x10>)
    2928:	4a03      	ldr	r2, [pc, #12]	; (2938 <z_bss_zero+0x14>)
    292a:	2100      	movs	r1, #0
    292c:	1a12      	subs	r2, r2, r0
    292e:	f001 fbb2 	bl	4096 <z_early_memset>
    2932:	bd08      	pop	{r3, pc}
    2934:	20000580 	.word	0x20000580
    2938:	2000082c 	.word	0x2000082c

0000293c <z_init_cpu>:
    293c:	b570      	push	{r4, r5, r6, lr}
    293e:	2300      	movs	r3, #0
    2940:	b086      	sub	sp, #24
    2942:	2201      	movs	r2, #1
    2944:	e9cd 2304 	strd	r2, r3, [sp, #16]
    2948:	4e13      	ldr	r6, [pc, #76]	; (2998 <z_init_cpu+0x5c>)
    294a:	4d14      	ldr	r5, [pc, #80]	; (299c <z_init_cpu+0x60>)
    294c:	9301      	str	r3, [sp, #4]
    294e:	220f      	movs	r2, #15
    2950:	e9cd 3202 	strd	r3, r2, [sp, #8]
    2954:	4912      	ldr	r1, [pc, #72]	; (29a0 <z_init_cpu+0x64>)
    2956:	2314      	movs	r3, #20
    2958:	fb03 5500 	mla	r5, r3, r0, r5
    295c:	eb06 16c0 	add.w	r6, r6, r0, lsl #7
    2960:	4604      	mov	r4, r0
    2962:	f44f 70c0 	mov.w	r0, #384	; 0x180
    2966:	fb00 1104 	mla	r1, r0, r4, r1
    296a:	4b0e      	ldr	r3, [pc, #56]	; (29a4 <z_init_cpu+0x68>)
    296c:	9500      	str	r5, [sp, #0]
    296e:	f44f 72a0 	mov.w	r2, #320	; 0x140
    2972:	4630      	mov	r0, r6
    2974:	f000 f8d2 	bl	2b1c <z_setup_new_thread>
    2978:	7b73      	ldrb	r3, [r6, #13]
    297a:	4a0b      	ldr	r2, [pc, #44]	; (29a8 <z_init_cpu+0x6c>)
    297c:	60ee      	str	r6, [r5, #12]
    297e:	f023 0304 	bic.w	r3, r3, #4
    2982:	7373      	strb	r3, [r6, #13]
    2984:	f44f 6304 	mov.w	r3, #2112	; 0x840
    2988:	fb04 3303 	mla	r3, r4, r3, r3
    298c:	4413      	add	r3, r2
    298e:	742c      	strb	r4, [r5, #16]
    2990:	606b      	str	r3, [r5, #4]
    2992:	b006      	add	sp, #24
    2994:	bd70      	pop	{r4, r5, r6, pc}
    2996:	bf00      	nop
    2998:	200005a0 	.word	0x200005a0
    299c:	200007f4 	.word	0x200007f4
    29a0:	20001080 	.word	0x20001080
    29a4:	000040a1 	.word	0x000040a1
    29a8:	20000840 	.word	0x20000840

000029ac <z_cstart>:
    29ac:	b5bf      	push	{r0, r1, r2, r3, r4, r5, r7, lr}
    29ae:	2000      	movs	r0, #0
    29b0:	f7ff ff40 	bl	2834 <z_sys_init_run_level>
    29b4:	4b2c      	ldr	r3, [pc, #176]	; (2a68 <z_cstart+0xbc>)
    29b6:	f383 8808 	msr	MSP, r3
    29ba:	4d2c      	ldr	r5, [pc, #176]	; (2a6c <z_cstart+0xc0>)
    29bc:	4e2c      	ldr	r6, [pc, #176]	; (2a70 <z_cstart+0xc4>)
    29be:	696b      	ldr	r3, [r5, #20]
    29c0:	4f2c      	ldr	r7, [pc, #176]	; (2a74 <z_cstart+0xc8>)
    29c2:	f443 7300 	orr.w	r3, r3, #512	; 0x200
    29c6:	616b      	str	r3, [r5, #20]
    29c8:	2400      	movs	r4, #0
    29ca:	23e0      	movs	r3, #224	; 0xe0
    29cc:	f885 3022 	strb.w	r3, [r5, #34]	; 0x22
    29d0:	77ec      	strb	r4, [r5, #31]
    29d2:	762c      	strb	r4, [r5, #24]
    29d4:	766c      	strb	r4, [r5, #25]
    29d6:	76ac      	strb	r4, [r5, #26]
    29d8:	f885 4020 	strb.w	r4, [r5, #32]
    29dc:	6a6b      	ldr	r3, [r5, #36]	; 0x24
    29de:	f443 23e0 	orr.w	r3, r3, #458752	; 0x70000
    29e2:	626b      	str	r3, [r5, #36]	; 0x24
    29e4:	f885 4023 	strb.w	r4, [r5, #35]	; 0x23
    29e8:	f7fd fe64 	bl	6b4 <z_arm_fault_init>
    29ec:	f7fd ffb8 	bl	960 <z_arm_cpu_idle_init>
    29f0:	f04f 33ff 	mov.w	r3, #4294967295	; 0xffffffff
    29f4:	62ab      	str	r3, [r5, #40]	; 0x28
    29f6:	62eb      	str	r3, [r5, #44]	; 0x2c
    29f8:	f7fe f878 	bl	aec <z_arm_mpu_init>
    29fc:	f7fd ffd4 	bl	9a8 <z_arm_configure_static_mpu_regions>
    2a00:	4b1d      	ldr	r3, [pc, #116]	; (2a78 <z_cstart+0xcc>)
    2a02:	60b3      	str	r3, [r6, #8]
    2a04:	f240 1201 	movw	r2, #257	; 0x101
    2a08:	819a      	strh	r2, [r3, #12]
    2a0a:	e9c3 4418 	strd	r4, r4, [r3, #96]	; 0x60
    2a0e:	66dc      	str	r4, [r3, #108]	; 0x6c
    2a10:	f001 fb12 	bl	4038 <z_device_state_init>
    2a14:	2001      	movs	r0, #1
    2a16:	f7ff ff0d 	bl	2834 <z_sys_init_run_level>
    2a1a:	2002      	movs	r0, #2
    2a1c:	4d17      	ldr	r5, [pc, #92]	; (2a7c <z_cstart+0xd0>)
    2a1e:	f7ff ff09 	bl	2834 <z_sys_init_run_level>
    2a22:	f000 fa7d 	bl	2f20 <z_sched_init>
    2a26:	4b16      	ldr	r3, [pc, #88]	; (2a80 <z_cstart+0xd4>)
    2a28:	6175      	str	r5, [r6, #20]
    2a2a:	9305      	str	r3, [sp, #20]
    2a2c:	2301      	movs	r3, #1
    2a2e:	4915      	ldr	r1, [pc, #84]	; (2a84 <z_cstart+0xd8>)
    2a30:	9400      	str	r4, [sp, #0]
    2a32:	e9cd 4303 	strd	r4, r3, [sp, #12]
    2a36:	f44f 6280 	mov.w	r2, #1024	; 0x400
    2a3a:	463b      	mov	r3, r7
    2a3c:	e9cd 4401 	strd	r4, r4, [sp, #4]
    2a40:	4628      	mov	r0, r5
    2a42:	f000 f86b 	bl	2b1c <z_setup_new_thread>
    2a46:	7b6a      	ldrb	r2, [r5, #13]
    2a48:	4606      	mov	r6, r0
    2a4a:	f022 0204 	bic.w	r2, r2, #4
    2a4e:	4628      	mov	r0, r5
    2a50:	736a      	strb	r2, [r5, #13]
    2a52:	f001 fb72 	bl	413a <z_ready_thread>
    2a56:	4620      	mov	r0, r4
    2a58:	f7ff ff70 	bl	293c <z_init_cpu>
    2a5c:	463a      	mov	r2, r7
    2a5e:	4631      	mov	r1, r6
    2a60:	4628      	mov	r0, r5
    2a62:	f7fd ff5b 	bl	91c <arch_switch_to_main_thread>
    2a66:	bf00      	nop
    2a68:	20001080 	.word	0x20001080
    2a6c:	e000ed00 	.word	0xe000ed00
    2a70:	200007f4 	.word	0x200007f4
    2a74:	00002861 	.word	0x00002861
    2a78:	200006a0 	.word	0x200006a0
    2a7c:	20000620 	.word	0x20000620
    2a80:	0000477b 	.word	0x0000477b
    2a84:	20001200 	.word	0x20001200

00002a88 <z_impl_k_sem_give>:
    2a88:	b538      	push	{r3, r4, r5, lr}
    2a8a:	4604      	mov	r4, r0
    2a8c:	f3ef 8511 	mrs	r5, BASEPRI
    2a90:	2320      	movs	r3, #32
    2a92:	f383 8812 	msr	BASEPRI_MAX, r3
    2a96:	f3bf 8f6f 	isb	sy
    2a9a:	f001 fb9c 	bl	41d6 <z_unpend_first_thread>
    2a9e:	b148      	cbz	r0, 2ab4 <z_impl_k_sem_give+0x2c>
    2aa0:	2200      	movs	r2, #0
    2aa2:	6782      	str	r2, [r0, #120]	; 0x78
    2aa4:	f001 fb49 	bl	413a <z_ready_thread>
    2aa8:	4629      	mov	r1, r5
    2aaa:	4808      	ldr	r0, [pc, #32]	; (2acc <z_impl_k_sem_give+0x44>)
    2aac:	e8bd 4038 	ldmia.w	sp!, {r3, r4, r5, lr}
    2ab0:	f000 b9be 	b.w	2e30 <z_reschedule>
    2ab4:	e9d4 3202 	ldrd	r3, r2, [r4, #8]
    2ab8:	429a      	cmp	r2, r3
    2aba:	bf18      	it	ne
    2abc:	3301      	addne	r3, #1
    2abe:	60a3      	str	r3, [r4, #8]
    2ac0:	f385 8811 	msr	BASEPRI, r5
    2ac4:	f3bf 8f6f 	isb	sy
    2ac8:	bd38      	pop	{r3, r4, r5, pc}
    2aca:	bf00      	nop
    2acc:	20000828 	.word	0x20000828

00002ad0 <z_impl_k_sem_take>:
    2ad0:	b513      	push	{r0, r1, r4, lr}
    2ad2:	f3ef 8111 	mrs	r1, BASEPRI
    2ad6:	2420      	movs	r4, #32
    2ad8:	f384 8812 	msr	BASEPRI_MAX, r4
    2adc:	f3bf 8f6f 	isb	sy
    2ae0:	6884      	ldr	r4, [r0, #8]
    2ae2:	b144      	cbz	r4, 2af6 <z_impl_k_sem_take+0x26>
    2ae4:	3c01      	subs	r4, #1
    2ae6:	6084      	str	r4, [r0, #8]
    2ae8:	f381 8811 	msr	BASEPRI, r1
    2aec:	f3bf 8f6f 	isb	sy
    2af0:	2000      	movs	r0, #0
    2af2:	b002      	add	sp, #8
    2af4:	bd10      	pop	{r4, pc}
    2af6:	ea52 0403 	orrs.w	r4, r2, r3
    2afa:	d106      	bne.n	2b0a <z_impl_k_sem_take+0x3a>
    2afc:	f381 8811 	msr	BASEPRI, r1
    2b00:	f3bf 8f6f 	isb	sy
    2b04:	f06f 000f 	mvn.w	r0, #15
    2b08:	e7f3      	b.n	2af2 <z_impl_k_sem_take+0x22>
    2b0a:	e9cd 2300 	strd	r2, r3, [sp]
    2b0e:	4602      	mov	r2, r0
    2b10:	4801      	ldr	r0, [pc, #4]	; (2b18 <z_impl_k_sem_take+0x48>)
    2b12:	f000 f961 	bl	2dd8 <z_pend_curr>
    2b16:	e7ec      	b.n	2af2 <z_impl_k_sem_take+0x22>
    2b18:	20000828 	.word	0x20000828

00002b1c <z_setup_new_thread>:
    2b1c:	e92d 43f0 	stmdb	sp!, {r4, r5, r6, r7, r8, r9, lr}
    2b20:	3207      	adds	r2, #7
    2b22:	b085      	sub	sp, #20
    2b24:	f022 0207 	bic.w	r2, r2, #7
    2b28:	460e      	mov	r6, r1
    2b2a:	461f      	mov	r7, r3
    2b2c:	9910      	ldr	r1, [sp, #64]	; 0x40
    2b2e:	7301      	strb	r1, [r0, #12]
    2b30:	f100 0358 	add.w	r3, r0, #88	; 0x58
    2b34:	327f      	adds	r2, #127	; 0x7f
    2b36:	e9c0 3316 	strd	r3, r3, [r0, #88]	; 0x58
    2b3a:	4604      	mov	r4, r0
    2b3c:	2300      	movs	r3, #0
    2b3e:	f022 023f 	bic.w	r2, r2, #63	; 0x3f
    2b42:	2104      	movs	r1, #4
    2b44:	6083      	str	r3, [r0, #8]
    2b46:	7341      	strb	r1, [r0, #13]
    2b48:	2a3f      	cmp	r2, #63	; 0x3f
    2b4a:	980f      	ldr	r0, [sp, #60]	; 0x3c
    2b4c:	73a0      	strb	r0, [r4, #14]
    2b4e:	e9c4 3306 	strd	r3, r3, [r4, #24]
    2b52:	73e3      	strb	r3, [r4, #15]
    2b54:	f106 0940 	add.w	r9, r6, #64	; 0x40
    2b58:	f1a2 0840 	sub.w	r8, r2, #64	; 0x40
    2b5c:	d805      	bhi.n	2b6a <z_setup_new_thread+0x4e>
    2b5e:	f383 8811 	msr	BASEPRI, r3
    2b62:	f3bf 8f6f 	isb	sy
    2b66:	4608      	mov	r0, r1
    2b68:	df02      	svc	2
    2b6a:	18b5      	adds	r5, r6, r2
    2b6c:	4629      	mov	r1, r5
    2b6e:	4620      	mov	r0, r4
    2b70:	f7fd fc28 	bl	3c4 <arch_tls_stack_setup>
    2b74:	3007      	adds	r0, #7
    2b76:	9b0e      	ldr	r3, [sp, #56]	; 0x38
    2b78:	f020 0007 	bic.w	r0, r0, #7
    2b7c:	66a0      	str	r0, [r4, #104]	; 0x68
    2b7e:	e9c4 9818 	strd	r9, r8, [r4, #96]	; 0x60
    2b82:	9302      	str	r3, [sp, #8]
    2b84:	9b0d      	ldr	r3, [sp, #52]	; 0x34
    2b86:	9301      	str	r3, [sp, #4]
    2b88:	1a2d      	subs	r5, r5, r0
    2b8a:	9b0c      	ldr	r3, [sp, #48]	; 0x30
    2b8c:	9300      	str	r3, [sp, #0]
    2b8e:	462a      	mov	r2, r5
    2b90:	463b      	mov	r3, r7
    2b92:	4631      	mov	r1, r6
    2b94:	4620      	mov	r0, r4
    2b96:	f7fd fe8f 	bl	8b8 <arch_new_thread>
    2b9a:	2300      	movs	r3, #0
    2b9c:	6563      	str	r3, [r4, #84]	; 0x54
    2b9e:	4b04      	ldr	r3, [pc, #16]	; (2bb0 <z_setup_new_thread+0x94>)
    2ba0:	689b      	ldr	r3, [r3, #8]
    2ba2:	b103      	cbz	r3, 2ba6 <z_setup_new_thread+0x8a>
    2ba4:	6edb      	ldr	r3, [r3, #108]	; 0x6c
    2ba6:	66e3      	str	r3, [r4, #108]	; 0x6c
    2ba8:	4628      	mov	r0, r5
    2baa:	b005      	add	sp, #20
    2bac:	e8bd 83f0 	ldmia.w	sp!, {r4, r5, r6, r7, r8, r9, pc}
    2bb0:	200007f4 	.word	0x200007f4

00002bb4 <update_cache>:
    2bb4:	b538      	push	{r3, r4, r5, lr}
    2bb6:	4d0d      	ldr	r5, [pc, #52]	; (2bec <update_cache+0x38>)
    2bb8:	462b      	mov	r3, r5
    2bba:	f853 4f18 	ldr.w	r4, [r3, #24]!
    2bbe:	429c      	cmp	r4, r3
    2bc0:	d000      	beq.n	2bc4 <update_cache+0x10>
    2bc2:	b904      	cbnz	r4, 2bc6 <update_cache+0x12>
    2bc4:	68ec      	ldr	r4, [r5, #12]
    2bc6:	68ab      	ldr	r3, [r5, #8]
    2bc8:	b938      	cbnz	r0, 2bda <update_cache+0x26>
    2bca:	7b5a      	ldrb	r2, [r3, #13]
    2bcc:	06d2      	lsls	r2, r2, #27
    2bce:	d104      	bne.n	2bda <update_cache+0x26>
    2bd0:	69a2      	ldr	r2, [r4, #24]
    2bd2:	b912      	cbnz	r2, 2bda <update_cache+0x26>
    2bd4:	89da      	ldrh	r2, [r3, #14]
    2bd6:	2a7f      	cmp	r2, #127	; 0x7f
    2bd8:	d805      	bhi.n	2be6 <update_cache+0x32>
    2bda:	429c      	cmp	r4, r3
    2bdc:	d002      	beq.n	2be4 <update_cache+0x30>
    2bde:	4620      	mov	r0, r4
    2be0:	f000 fa7a 	bl	30d8 <z_reset_time_slice>
    2be4:	4623      	mov	r3, r4
    2be6:	616b      	str	r3, [r5, #20]
    2be8:	bd38      	pop	{r3, r4, r5, pc}
    2bea:	bf00      	nop
    2bec:	200007f4 	.word	0x200007f4

00002bf0 <unready_thread>:
    2bf0:	b508      	push	{r3, lr}
    2bf2:	f990 200d 	ldrsb.w	r2, [r0, #13]
    2bf6:	7b43      	ldrb	r3, [r0, #13]
    2bf8:	2a00      	cmp	r2, #0
    2bfa:	4601      	mov	r1, r0
    2bfc:	da04      	bge.n	2c08 <unready_thread+0x18>
    2bfe:	f003 037f 	and.w	r3, r3, #127	; 0x7f
    2c02:	7343      	strb	r3, [r0, #13]
    2c04:	f001 fa5f 	bl	40c6 <sys_dlist_remove>
    2c08:	4b04      	ldr	r3, [pc, #16]	; (2c1c <unready_thread+0x2c>)
    2c0a:	6898      	ldr	r0, [r3, #8]
    2c0c:	1a43      	subs	r3, r0, r1
    2c0e:	4258      	negs	r0, r3
    2c10:	4158      	adcs	r0, r3
    2c12:	e8bd 4008 	ldmia.w	sp!, {r3, lr}
    2c16:	f7ff bfcd 	b.w	2bb4 <update_cache>
    2c1a:	bf00      	nop
    2c1c:	200007f4 	.word	0x200007f4

00002c20 <ready_thread>:
    2c20:	b470      	push	{r4, r5, r6}
    2c22:	f990 300d 	ldrsb.w	r3, [r0, #13]
    2c26:	7b42      	ldrb	r2, [r0, #13]
    2c28:	2b00      	cmp	r3, #0
    2c2a:	db29      	blt.n	2c80 <ready_thread+0x60>
    2c2c:	06d3      	lsls	r3, r2, #27
    2c2e:	d127      	bne.n	2c80 <ready_thread+0x60>
    2c30:	6983      	ldr	r3, [r0, #24]
    2c32:	bb2b      	cbnz	r3, 2c80 <ready_thread+0x60>
    2c34:	4913      	ldr	r1, [pc, #76]	; (2c84 <ready_thread+0x64>)
    2c36:	f062 027f 	orn	r2, r2, #127	; 0x7f
    2c3a:	7342      	strb	r2, [r0, #13]
    2c3c:	460a      	mov	r2, r1
    2c3e:	f852 4f18 	ldr.w	r4, [r2, #24]!
    2c42:	4294      	cmp	r4, r2
    2c44:	bf18      	it	ne
    2c46:	4623      	movne	r3, r4
    2c48:	69cc      	ldr	r4, [r1, #28]
    2c4a:	b923      	cbnz	r3, 2c56 <ready_thread+0x36>
    2c4c:	e9c0 2400 	strd	r2, r4, [r0]
    2c50:	6020      	str	r0, [r4, #0]
    2c52:	61c8      	str	r0, [r1, #28]
    2c54:	e00c      	b.n	2c70 <ready_thread+0x50>
    2c56:	f990 500e 	ldrsb.w	r5, [r0, #14]
    2c5a:	f993 600e 	ldrsb.w	r6, [r3, #14]
    2c5e:	42b5      	cmp	r5, r6
    2c60:	d00a      	beq.n	2c78 <ready_thread+0x58>
    2c62:	42ae      	cmp	r6, r5
    2c64:	dd08      	ble.n	2c78 <ready_thread+0x58>
    2c66:	685a      	ldr	r2, [r3, #4]
    2c68:	e9c0 3200 	strd	r3, r2, [r0]
    2c6c:	6010      	str	r0, [r2, #0]
    2c6e:	6058      	str	r0, [r3, #4]
    2c70:	bc70      	pop	{r4, r5, r6}
    2c72:	2000      	movs	r0, #0
    2c74:	f7ff bf9e 	b.w	2bb4 <update_cache>
    2c78:	429c      	cmp	r4, r3
    2c7a:	d0e7      	beq.n	2c4c <ready_thread+0x2c>
    2c7c:	681b      	ldr	r3, [r3, #0]
    2c7e:	e7e4      	b.n	2c4a <ready_thread+0x2a>
    2c80:	bc70      	pop	{r4, r5, r6}
    2c82:	4770      	bx	lr
    2c84:	200007f4 	.word	0x200007f4

00002c88 <z_thread_halt>:
    2c88:	e92d 41f0 	stmdb	sp!, {r4, r5, r6, r7, r8, lr}
    2c8c:	2a00      	cmp	r2, #0
    2c8e:	7b42      	ldrb	r2, [r0, #13]
    2c90:	460e      	mov	r6, r1
    2c92:	bf0c      	ite	eq
    2c94:	2110      	moveq	r1, #16
    2c96:	2108      	movne	r1, #8
    2c98:	4211      	tst	r1, r2
    2c9a:	4604      	mov	r4, r0
    2c9c:	d10f      	bne.n	2cbe <z_thread_halt+0x36>
    2c9e:	ea41 0302 	orr.w	r3, r1, r2
    2ca2:	09d2      	lsrs	r2, r2, #7
    2ca4:	d118      	bne.n	2cd8 <z_thread_halt+0x50>
    2ca6:	7343      	strb	r3, [r0, #13]
    2ca8:	2908      	cmp	r1, #8
    2caa:	d01b      	beq.n	2ce4 <z_thread_halt+0x5c>
    2cac:	2001      	movs	r0, #1
    2cae:	f7ff ff81 	bl	2bb4 <update_cache>
    2cb2:	f3bf 8f5f 	dmb	sy
    2cb6:	7b63      	ldrb	r3, [r4, #13]
    2cb8:	f023 0360 	bic.w	r3, r3, #96	; 0x60
    2cbc:	7363      	strb	r3, [r4, #13]
    2cbe:	4b27      	ldr	r3, [pc, #156]	; (2d5c <z_thread_halt+0xd4>)
    2cc0:	689b      	ldr	r3, [r3, #8]
    2cc2:	42a3      	cmp	r3, r4
    2cc4:	d143      	bne.n	2d4e <z_thread_halt+0xc6>
    2cc6:	f3ef 8305 	mrs	r3, IPSR
    2cca:	2b00      	cmp	r3, #0
    2ccc:	d13f      	bne.n	2d4e <z_thread_halt+0xc6>
    2cce:	4630      	mov	r0, r6
    2cd0:	e8bd 41f0 	ldmia.w	sp!, {r4, r5, r6, r7, r8, lr}
    2cd4:	f7fd bd32 	b.w	73c <arch_swap>
    2cd8:	f003 037f 	and.w	r3, r3, #127	; 0x7f
    2cdc:	7343      	strb	r3, [r0, #13]
    2cde:	f001 f9f2 	bl	40c6 <sys_dlist_remove>
    2ce2:	e7e1      	b.n	2ca8 <z_thread_halt+0x20>
    2ce4:	68a3      	ldr	r3, [r4, #8]
    2ce6:	b113      	cbz	r3, 2cee <z_thread_halt+0x66>
    2ce8:	4620      	mov	r0, r4
    2cea:	f001 f9f4 	bl	40d6 <unpend_thread_no_timeout>
    2cee:	f104 0018 	add.w	r0, r4, #24
    2cf2:	f001 faad 	bl	4250 <z_abort_timeout>
    2cf6:	6da5      	ldr	r5, [r4, #88]	; 0x58
    2cf8:	f104 0758 	add.w	r7, r4, #88	; 0x58
    2cfc:	42af      	cmp	r7, r5
    2cfe:	d011      	beq.n	2d24 <z_thread_halt+0x9c>
    2d00:	f04f 0800 	mov.w	r8, #0
    2d04:	b175      	cbz	r5, 2d24 <z_thread_halt+0x9c>
    2d06:	4628      	mov	r0, r5
    2d08:	f001 f9e5 	bl	40d6 <unpend_thread_no_timeout>
    2d0c:	f105 0018 	add.w	r0, r5, #24
    2d10:	f001 fa9e 	bl	4250 <z_abort_timeout>
    2d14:	f8c5 8078 	str.w	r8, [r5, #120]	; 0x78
    2d18:	4628      	mov	r0, r5
    2d1a:	f7ff ff81 	bl	2c20 <ready_thread>
    2d1e:	6da5      	ldr	r5, [r4, #88]	; 0x58
    2d20:	42af      	cmp	r7, r5
    2d22:	d1ef      	bne.n	2d04 <z_thread_halt+0x7c>
    2d24:	4d0d      	ldr	r5, [pc, #52]	; (2d5c <z_thread_halt+0xd4>)
    2d26:	68ab      	ldr	r3, [r5, #8]
    2d28:	429c      	cmp	r4, r3
    2d2a:	d1bf      	bne.n	2cac <z_thread_halt+0x24>
    2d2c:	f3ef 8305 	mrs	r3, IPSR
    2d30:	2b00      	cmp	r3, #0
    2d32:	d0bb      	beq.n	2cac <z_thread_halt+0x24>
    2d34:	2001      	movs	r0, #1
    2d36:	f7ff ff3d 	bl	2bb4 <update_cache>
    2d3a:	4b09      	ldr	r3, [pc, #36]	; (2d60 <z_thread_halt+0xd8>)
    2d3c:	60ab      	str	r3, [r5, #8]
    2d3e:	f240 1201 	movw	r2, #257	; 0x101
    2d42:	819a      	strh	r2, [r3, #12]
    2d44:	2200      	movs	r2, #0
    2d46:	e9c3 2218 	strd	r2, r2, [r3, #96]	; 0x60
    2d4a:	66da      	str	r2, [r3, #108]	; 0x6c
    2d4c:	e7b1      	b.n	2cb2 <z_thread_halt+0x2a>
    2d4e:	f386 8811 	msr	BASEPRI, r6
    2d52:	f3bf 8f6f 	isb	sy
    2d56:	e8bd 81f0 	ldmia.w	sp!, {r4, r5, r6, r7, r8, pc}
    2d5a:	bf00      	nop
    2d5c:	200007f4 	.word	0x200007f4
    2d60:	200006a0 	.word	0x200006a0

00002d64 <move_thread_to_end_of_prio_q>:
    2d64:	b570      	push	{r4, r5, r6, lr}
    2d66:	f990 200d 	ldrsb.w	r2, [r0, #13]
    2d6a:	7b43      	ldrb	r3, [r0, #13]
    2d6c:	2a00      	cmp	r2, #0
    2d6e:	4601      	mov	r1, r0
    2d70:	da04      	bge.n	2d7c <move_thread_to_end_of_prio_q+0x18>
    2d72:	f003 037f 	and.w	r3, r3, #127	; 0x7f
    2d76:	7343      	strb	r3, [r0, #13]
    2d78:	f001 f9a5 	bl	40c6 <sys_dlist_remove>
    2d7c:	7b4b      	ldrb	r3, [r1, #13]
    2d7e:	4a15      	ldr	r2, [pc, #84]	; (2dd4 <move_thread_to_end_of_prio_q+0x70>)
    2d80:	f063 037f 	orn	r3, r3, #127	; 0x7f
    2d84:	4610      	mov	r0, r2
    2d86:	734b      	strb	r3, [r1, #13]
    2d88:	f850 3f18 	ldr.w	r3, [r0, #24]!
    2d8c:	69d4      	ldr	r4, [r2, #28]
    2d8e:	4283      	cmp	r3, r0
    2d90:	bf08      	it	eq
    2d92:	2300      	moveq	r3, #0
    2d94:	b923      	cbnz	r3, 2da0 <move_thread_to_end_of_prio_q+0x3c>
    2d96:	e9c1 0400 	strd	r0, r4, [r1]
    2d9a:	6021      	str	r1, [r4, #0]
    2d9c:	61d1      	str	r1, [r2, #28]
    2d9e:	e00c      	b.n	2dba <move_thread_to_end_of_prio_q+0x56>
    2da0:	f991 500e 	ldrsb.w	r5, [r1, #14]
    2da4:	f993 600e 	ldrsb.w	r6, [r3, #14]
    2da8:	42b5      	cmp	r5, r6
    2daa:	d00e      	beq.n	2dca <move_thread_to_end_of_prio_q+0x66>
    2dac:	42ae      	cmp	r6, r5
    2dae:	dd0c      	ble.n	2dca <move_thread_to_end_of_prio_q+0x66>
    2db0:	6858      	ldr	r0, [r3, #4]
    2db2:	e9c1 3000 	strd	r3, r0, [r1]
    2db6:	6001      	str	r1, [r0, #0]
    2db8:	6059      	str	r1, [r3, #4]
    2dba:	6890      	ldr	r0, [r2, #8]
    2dbc:	1a43      	subs	r3, r0, r1
    2dbe:	4258      	negs	r0, r3
    2dc0:	e8bd 4070 	ldmia.w	sp!, {r4, r5, r6, lr}
    2dc4:	4158      	adcs	r0, r3
    2dc6:	f7ff bef5 	b.w	2bb4 <update_cache>
    2dca:	429c      	cmp	r4, r3
    2dcc:	d0e3      	beq.n	2d96 <move_thread_to_end_of_prio_q+0x32>
    2dce:	681b      	ldr	r3, [r3, #0]
    2dd0:	e7e0      	b.n	2d94 <move_thread_to_end_of_prio_q+0x30>
    2dd2:	bf00      	nop
    2dd4:	200007f4 	.word	0x200007f4

00002dd8 <z_pend_curr>:
    2dd8:	b5f8      	push	{r3, r4, r5, r6, r7, lr}
    2dda:	4b12      	ldr	r3, [pc, #72]	; (2e24 <z_pend_curr+0x4c>)
    2ddc:	460c      	mov	r4, r1
    2dde:	4611      	mov	r1, r2
    2de0:	4a11      	ldr	r2, [pc, #68]	; (2e28 <z_pend_curr+0x50>)
    2de2:	6898      	ldr	r0, [r3, #8]
    2de4:	6010      	str	r0, [r2, #0]
    2de6:	e9dd 7606 	ldrd	r7, r6, [sp, #24]
    2dea:	f3ef 8211 	mrs	r2, BASEPRI
    2dee:	2220      	movs	r2, #32
    2df0:	f382 8812 	msr	BASEPRI_MAX, r2
    2df4:	f3bf 8f6f 	isb	sy
    2df8:	689d      	ldr	r5, [r3, #8]
    2dfa:	4628      	mov	r0, r5
    2dfc:	f001 f975 	bl	40ea <add_to_waitq_locked>
    2e00:	f1b6 3fff 	cmp.w	r6, #4294967295	; 0xffffffff
    2e04:	bf08      	it	eq
    2e06:	f1b7 3fff 	cmpeq.w	r7, #4294967295	; 0xffffffff
    2e0a:	d006      	beq.n	2e1a <z_pend_curr+0x42>
    2e0c:	4907      	ldr	r1, [pc, #28]	; (2e2c <z_pend_curr+0x54>)
    2e0e:	463a      	mov	r2, r7
    2e10:	4633      	mov	r3, r6
    2e12:	f105 0018 	add.w	r0, r5, #24
    2e16:	f000 fa17 	bl	3248 <z_add_timeout>
    2e1a:	4620      	mov	r0, r4
    2e1c:	e8bd 40f8 	ldmia.w	sp!, {r3, r4, r5, r6, r7, lr}
    2e20:	f7fd bc8c 	b.w	73c <arch_swap>
    2e24:	200007f4 	.word	0x200007f4
    2e28:	20000814 	.word	0x20000814
    2e2c:	000041cf 	.word	0x000041cf

00002e30 <z_reschedule>:
    2e30:	b949      	cbnz	r1, 2e46 <z_reschedule+0x16>
    2e32:	f3ef 8005 	mrs	r0, IPSR
    2e36:	b930      	cbnz	r0, 2e46 <z_reschedule+0x16>
    2e38:	4b05      	ldr	r3, [pc, #20]	; (2e50 <z_reschedule+0x20>)
    2e3a:	695a      	ldr	r2, [r3, #20]
    2e3c:	689b      	ldr	r3, [r3, #8]
    2e3e:	429a      	cmp	r2, r3
    2e40:	d001      	beq.n	2e46 <z_reschedule+0x16>
    2e42:	f7fd bc7b 	b.w	73c <arch_swap>
    2e46:	f381 8811 	msr	BASEPRI, r1
    2e4a:	f3bf 8f6f 	isb	sy
    2e4e:	4770      	bx	lr
    2e50:	200007f4 	.word	0x200007f4

00002e54 <z_sched_start>:
    2e54:	b510      	push	{r4, lr}
    2e56:	f3ef 8411 	mrs	r4, BASEPRI
    2e5a:	2220      	movs	r2, #32
    2e5c:	f382 8812 	msr	BASEPRI_MAX, r2
    2e60:	f3bf 8f6f 	isb	sy
    2e64:	7b42      	ldrb	r2, [r0, #13]
    2e66:	0751      	lsls	r1, r2, #29
    2e68:	d404      	bmi.n	2e74 <z_sched_start+0x20>
    2e6a:	f384 8811 	msr	BASEPRI, r4
    2e6e:	f3bf 8f6f 	isb	sy
    2e72:	bd10      	pop	{r4, pc}
    2e74:	f022 0204 	bic.w	r2, r2, #4
    2e78:	7342      	strb	r2, [r0, #13]
    2e7a:	f7ff fed1 	bl	2c20 <ready_thread>
    2e7e:	4621      	mov	r1, r4
    2e80:	4802      	ldr	r0, [pc, #8]	; (2e8c <z_sched_start+0x38>)
    2e82:	e8bd 4010 	ldmia.w	sp!, {r4, lr}
    2e86:	f7ff bfd3 	b.w	2e30 <z_reschedule>
    2e8a:	bf00      	nop
    2e8c:	20000828 	.word	0x20000828

00002e90 <z_reschedule_irqlock>:
    2e90:	4603      	mov	r3, r0
    2e92:	b948      	cbnz	r0, 2ea8 <z_reschedule_irqlock+0x18>
    2e94:	f3ef 8205 	mrs	r2, IPSR
    2e98:	b932      	cbnz	r2, 2ea8 <z_reschedule_irqlock+0x18>
    2e9a:	4a06      	ldr	r2, [pc, #24]	; (2eb4 <z_reschedule_irqlock+0x24>)
    2e9c:	6951      	ldr	r1, [r2, #20]
    2e9e:	6892      	ldr	r2, [r2, #8]
    2ea0:	4291      	cmp	r1, r2
    2ea2:	d001      	beq.n	2ea8 <z_reschedule_irqlock+0x18>
    2ea4:	f7fd bc4a 	b.w	73c <arch_swap>
    2ea8:	f383 8811 	msr	BASEPRI, r3
    2eac:	f3bf 8f6f 	isb	sy
    2eb0:	4770      	bx	lr
    2eb2:	bf00      	nop
    2eb4:	200007f4 	.word	0x200007f4

00002eb8 <k_sched_lock>:
    2eb8:	f3ef 8111 	mrs	r1, BASEPRI
    2ebc:	2320      	movs	r3, #32
    2ebe:	f383 8812 	msr	BASEPRI_MAX, r3
    2ec2:	f3bf 8f6f 	isb	sy
    2ec6:	4b05      	ldr	r3, [pc, #20]	; (2edc <k_sched_lock+0x24>)
    2ec8:	689a      	ldr	r2, [r3, #8]
    2eca:	7bd3      	ldrb	r3, [r2, #15]
    2ecc:	3b01      	subs	r3, #1
    2ece:	73d3      	strb	r3, [r2, #15]
    2ed0:	f381 8811 	msr	BASEPRI, r1
    2ed4:	f3bf 8f6f 	isb	sy
    2ed8:	4770      	bx	lr
    2eda:	bf00      	nop
    2edc:	200007f4 	.word	0x200007f4

00002ee0 <k_sched_unlock>:
    2ee0:	b538      	push	{r3, r4, r5, lr}
    2ee2:	f3ef 8511 	mrs	r5, BASEPRI
    2ee6:	2420      	movs	r4, #32
    2ee8:	f384 8812 	msr	BASEPRI_MAX, r4
    2eec:	f3bf 8f6f 	isb	sy
    2ef0:	4b0a      	ldr	r3, [pc, #40]	; (2f1c <k_sched_unlock+0x3c>)
    2ef2:	689a      	ldr	r2, [r3, #8]
    2ef4:	7bd3      	ldrb	r3, [r2, #15]
    2ef6:	3301      	adds	r3, #1
    2ef8:	73d3      	strb	r3, [r2, #15]
    2efa:	2000      	movs	r0, #0
    2efc:	f7ff fe5a 	bl	2bb4 <update_cache>
    2f00:	f385 8811 	msr	BASEPRI, r5
    2f04:	f3bf 8f6f 	isb	sy
    2f08:	f3ef 8011 	mrs	r0, BASEPRI
    2f0c:	f384 8812 	msr	BASEPRI_MAX, r4
    2f10:	f3bf 8f6f 	isb	sy
    2f14:	e8bd 4038 	ldmia.w	sp!, {r3, r4, r5, lr}
    2f18:	f7ff bfba 	b.w	2e90 <z_reschedule_irqlock>
    2f1c:	200007f4 	.word	0x200007f4

00002f20 <z_sched_init>:
    2f20:	4b02      	ldr	r3, [pc, #8]	; (2f2c <z_sched_init+0xc>)
    2f22:	f103 0218 	add.w	r2, r3, #24
    2f26:	e9c3 2206 	strd	r2, r2, [r3, #24]
    2f2a:	4770      	bx	lr
    2f2c:	200007f4 	.word	0x200007f4

00002f30 <z_impl_k_yield>:
    2f30:	b5f8      	push	{r3, r4, r5, r6, r7, lr}
    2f32:	f3ef 8511 	mrs	r5, BASEPRI
    2f36:	2320      	movs	r3, #32
    2f38:	f383 8812 	msr	BASEPRI_MAX, r3
    2f3c:	f3bf 8f6f 	isb	sy
    2f40:	4919      	ldr	r1, [pc, #100]	; (2fa8 <z_impl_k_yield+0x78>)
    2f42:	6888      	ldr	r0, [r1, #8]
    2f44:	7b43      	ldrb	r3, [r0, #13]
    2f46:	f003 037f 	and.w	r3, r3, #127	; 0x7f
    2f4a:	7343      	strb	r3, [r0, #13]
    2f4c:	f001 f8bb 	bl	40c6 <sys_dlist_remove>
    2f50:	688b      	ldr	r3, [r1, #8]
    2f52:	7b5a      	ldrb	r2, [r3, #13]
    2f54:	4608      	mov	r0, r1
    2f56:	f062 027f 	orn	r2, r2, #127	; 0x7f
    2f5a:	735a      	strb	r2, [r3, #13]
    2f5c:	f850 2f18 	ldr.w	r2, [r0, #24]!
    2f60:	69cc      	ldr	r4, [r1, #28]
    2f62:	4282      	cmp	r2, r0
    2f64:	bf08      	it	eq
    2f66:	2200      	moveq	r2, #0
    2f68:	b922      	cbnz	r2, 2f74 <z_impl_k_yield+0x44>
    2f6a:	e9c3 0400 	strd	r0, r4, [r3]
    2f6e:	6023      	str	r3, [r4, #0]
    2f70:	61cb      	str	r3, [r1, #28]
    2f72:	e00c      	b.n	2f8e <z_impl_k_yield+0x5e>
    2f74:	f993 600e 	ldrsb.w	r6, [r3, #14]
    2f78:	f992 700e 	ldrsb.w	r7, [r2, #14]
    2f7c:	42be      	cmp	r6, r7
    2f7e:	d00e      	beq.n	2f9e <z_impl_k_yield+0x6e>
    2f80:	42b7      	cmp	r7, r6
    2f82:	dd0c      	ble.n	2f9e <z_impl_k_yield+0x6e>
    2f84:	6851      	ldr	r1, [r2, #4]
    2f86:	e9c3 2100 	strd	r2, r1, [r3]
    2f8a:	600b      	str	r3, [r1, #0]
    2f8c:	6053      	str	r3, [r2, #4]
    2f8e:	2001      	movs	r0, #1
    2f90:	f7ff fe10 	bl	2bb4 <update_cache>
    2f94:	4628      	mov	r0, r5
    2f96:	e8bd 40f8 	ldmia.w	sp!, {r3, r4, r5, r6, r7, lr}
    2f9a:	f7fd bbcf 	b.w	73c <arch_swap>
    2f9e:	42a2      	cmp	r2, r4
    2fa0:	d0e3      	beq.n	2f6a <z_impl_k_yield+0x3a>
    2fa2:	6812      	ldr	r2, [r2, #0]
    2fa4:	e7e0      	b.n	2f68 <z_impl_k_yield+0x38>
    2fa6:	bf00      	nop
    2fa8:	200007f4 	.word	0x200007f4

00002fac <z_tick_sleep>:
    2fac:	ea50 0301 	orrs.w	r3, r0, r1
    2fb0:	e92d 41f0 	stmdb	sp!, {r4, r5, r6, r7, r8, lr}
    2fb4:	4605      	mov	r5, r0
    2fb6:	460e      	mov	r6, r1
    2fb8:	d103      	bne.n	2fc2 <z_tick_sleep+0x16>
    2fba:	f7ff ffb9 	bl	2f30 <z_impl_k_yield>
    2fbe:	2000      	movs	r0, #0
    2fc0:	e02b      	b.n	301a <z_tick_sleep+0x6e>
    2fc2:	1c83      	adds	r3, r0, #2
    2fc4:	f171 33ff 	sbcs.w	r3, r1, #4294967295	; 0xffffffff
    2fc8:	db29      	blt.n	301e <z_tick_sleep+0x72>
    2fca:	f001 f956 	bl	427a <sys_clock_tick_get_32>
    2fce:	182c      	adds	r4, r5, r0
    2fd0:	f3ef 8811 	mrs	r8, BASEPRI
    2fd4:	2320      	movs	r3, #32
    2fd6:	f383 8812 	msr	BASEPRI_MAX, r3
    2fda:	f3bf 8f6f 	isb	sy
    2fde:	4f12      	ldr	r7, [pc, #72]	; (3028 <z_tick_sleep+0x7c>)
    2fe0:	4b12      	ldr	r3, [pc, #72]	; (302c <z_tick_sleep+0x80>)
    2fe2:	68b8      	ldr	r0, [r7, #8]
    2fe4:	6018      	str	r0, [r3, #0]
    2fe6:	f7ff fe03 	bl	2bf0 <unready_thread>
    2fea:	68b8      	ldr	r0, [r7, #8]
    2fec:	4910      	ldr	r1, [pc, #64]	; (3030 <z_tick_sleep+0x84>)
    2fee:	462a      	mov	r2, r5
    2ff0:	4633      	mov	r3, r6
    2ff2:	3018      	adds	r0, #24
    2ff4:	f000 f928 	bl	3248 <z_add_timeout>
    2ff8:	68ba      	ldr	r2, [r7, #8]
    2ffa:	7b53      	ldrb	r3, [r2, #13]
    2ffc:	f043 0310 	orr.w	r3, r3, #16
    3000:	7353      	strb	r3, [r2, #13]
    3002:	4640      	mov	r0, r8
    3004:	f7fd fb9a 	bl	73c <arch_swap>
    3008:	f001 f937 	bl	427a <sys_clock_tick_get_32>
    300c:	1a20      	subs	r0, r4, r0
    300e:	eb63 0303 	sbc.w	r3, r3, r3
    3012:	2801      	cmp	r0, #1
    3014:	f173 0300 	sbcs.w	r3, r3, #0
    3018:	dbd1      	blt.n	2fbe <z_tick_sleep+0x12>
    301a:	e8bd 81f0 	ldmia.w	sp!, {r4, r5, r6, r7, r8, pc}
    301e:	f06f 0401 	mvn.w	r4, #1
    3022:	1a24      	subs	r4, r4, r0
    3024:	e7d4      	b.n	2fd0 <z_tick_sleep+0x24>
    3026:	bf00      	nop
    3028:	200007f4 	.word	0x200007f4
    302c:	20000814 	.word	0x20000814
    3030:	000041cf 	.word	0x000041cf

00003034 <z_impl_k_sleep>:
    3034:	f1b1 3fff 	cmp.w	r1, #4294967295	; 0xffffffff
    3038:	bf08      	it	eq
    303a:	f1b0 3fff 	cmpeq.w	r0, #4294967295	; 0xffffffff
    303e:	b508      	push	{r3, lr}
    3040:	d106      	bne.n	3050 <z_impl_k_sleep+0x1c>
    3042:	4b0a      	ldr	r3, [pc, #40]	; (306c <z_impl_k_sleep+0x38>)
    3044:	6898      	ldr	r0, [r3, #8]
    3046:	f001 f887 	bl	4158 <z_impl_k_thread_suspend>
    304a:	f04f 30ff 	mov.w	r0, #4294967295	; 0xffffffff
    304e:	bd08      	pop	{r3, pc}
    3050:	f7ff ffac 	bl	2fac <z_tick_sleep>
    3054:	f44f 717a 	mov.w	r1, #1000	; 0x3e8
    3058:	f647 73ff 	movw	r3, #32767	; 0x7fff
    305c:	2200      	movs	r2, #0
    305e:	fbc0 3201 	smlal	r3, r2, r0, r1
    3062:	0bd8      	lsrs	r0, r3, #15
    3064:	ea40 4042 	orr.w	r0, r0, r2, lsl #17
    3068:	e7f1      	b.n	304e <z_impl_k_sleep+0x1a>
    306a:	bf00      	nop
    306c:	200007f4 	.word	0x200007f4

00003070 <z_impl_k_sched_current_thread_query>:
    3070:	4b01      	ldr	r3, [pc, #4]	; (3078 <z_impl_k_sched_current_thread_query+0x8>)
    3072:	6898      	ldr	r0, [r3, #8]
    3074:	4770      	bx	lr
    3076:	bf00      	nop
    3078:	200007f4 	.word	0x200007f4

0000307c <slice_timeout>:
    307c:	4b04      	ldr	r3, [pc, #16]	; (3090 <slice_timeout+0x14>)
    307e:	1ac0      	subs	r0, r0, r3
    3080:	4b04      	ldr	r3, [pc, #16]	; (3094 <slice_timeout+0x18>)
    3082:	10c0      	asrs	r0, r0, #3
    3084:	4358      	muls	r0, r3
    3086:	4b04      	ldr	r3, [pc, #16]	; (3098 <slice_timeout+0x1c>)
    3088:	2201      	movs	r2, #1
    308a:	541a      	strb	r2, [r3, r0]
    308c:	4770      	bx	lr
    308e:	bf00      	nop
    3090:	20000720 	.word	0x20000720
    3094:	aaaaaaab 	.word	0xaaaaaaab
    3098:	20000828 	.word	0x20000828

0000309c <thread_is_sliceable>:
    309c:	89c3      	ldrh	r3, [r0, #14]
    309e:	2b7f      	cmp	r3, #127	; 0x7f
    30a0:	d812      	bhi.n	30c8 <thread_is_sliceable+0x2c>
    30a2:	4b0a      	ldr	r3, [pc, #40]	; (30cc <thread_is_sliceable+0x30>)
    30a4:	681b      	ldr	r3, [r3, #0]
    30a6:	b163      	cbz	r3, 30c2 <thread_is_sliceable+0x26>
    30a8:	4b09      	ldr	r3, [pc, #36]	; (30d0 <thread_is_sliceable+0x34>)
    30aa:	f990 200e 	ldrsb.w	r2, [r0, #14]
    30ae:	681b      	ldr	r3, [r3, #0]
    30b0:	429a      	cmp	r2, r3
    30b2:	db09      	blt.n	30c8 <thread_is_sliceable+0x2c>
    30b4:	7b43      	ldrb	r3, [r0, #13]
    30b6:	06db      	lsls	r3, r3, #27
    30b8:	d106      	bne.n	30c8 <thread_is_sliceable+0x2c>
    30ba:	4b06      	ldr	r3, [pc, #24]	; (30d4 <thread_is_sliceable+0x38>)
    30bc:	1ac3      	subs	r3, r0, r3
    30be:	bf18      	it	ne
    30c0:	2301      	movne	r3, #1
    30c2:	f003 0001 	and.w	r0, r3, #1
    30c6:	4770      	bx	lr
    30c8:	2300      	movs	r3, #0
    30ca:	e7fa      	b.n	30c2 <thread_is_sliceable+0x26>
    30cc:	2000081c 	.word	0x2000081c
    30d0:	20000818 	.word	0x20000818
    30d4:	200005a0 	.word	0x200005a0

000030d8 <z_reset_time_slice>:
    30d8:	b570      	push	{r4, r5, r6, lr}
    30da:	4b0e      	ldr	r3, [pc, #56]	; (3114 <z_reset_time_slice+0x3c>)
    30dc:	4c0e      	ldr	r4, [pc, #56]	; (3118 <z_reset_time_slice+0x40>)
    30de:	7c1e      	ldrb	r6, [r3, #16]
    30e0:	eb06 0346 	add.w	r3, r6, r6, lsl #1
    30e4:	eb04 04c3 	add.w	r4, r4, r3, lsl #3
    30e8:	4605      	mov	r5, r0
    30ea:	4620      	mov	r0, r4
    30ec:	f001 f8b0 	bl	4250 <z_abort_timeout>
    30f0:	4b0a      	ldr	r3, [pc, #40]	; (311c <z_reset_time_slice+0x44>)
    30f2:	2200      	movs	r2, #0
    30f4:	4628      	mov	r0, r5
    30f6:	559a      	strb	r2, [r3, r6]
    30f8:	f7ff ffd0 	bl	309c <thread_is_sliceable>
    30fc:	b148      	cbz	r0, 3112 <z_reset_time_slice+0x3a>
    30fe:	4b08      	ldr	r3, [pc, #32]	; (3120 <z_reset_time_slice+0x48>)
    3100:	4908      	ldr	r1, [pc, #32]	; (3124 <z_reset_time_slice+0x4c>)
    3102:	681a      	ldr	r2, [r3, #0]
    3104:	3a01      	subs	r2, #1
    3106:	4620      	mov	r0, r4
    3108:	17d3      	asrs	r3, r2, #31
    310a:	e8bd 4070 	ldmia.w	sp!, {r4, r5, r6, lr}
    310e:	f000 b89b 	b.w	3248 <z_add_timeout>
    3112:	bd70      	pop	{r4, r5, r6, pc}
    3114:	200007f4 	.word	0x200007f4
    3118:	20000720 	.word	0x20000720
    311c:	20000828 	.word	0x20000828
    3120:	2000081c 	.word	0x2000081c
    3124:	0000307d 	.word	0x0000307d

00003128 <z_time_slice>:
    3128:	b538      	push	{r3, r4, r5, lr}
    312a:	f3ef 8511 	mrs	r5, BASEPRI
    312e:	2320      	movs	r3, #32
    3130:	f383 8812 	msr	BASEPRI_MAX, r3
    3134:	f3bf 8f6f 	isb	sy
    3138:	4b10      	ldr	r3, [pc, #64]	; (317c <z_time_slice+0x54>)
    313a:	4a11      	ldr	r2, [pc, #68]	; (3180 <z_time_slice+0x58>)
    313c:	689c      	ldr	r4, [r3, #8]
    313e:	6810      	ldr	r0, [r2, #0]
    3140:	42a0      	cmp	r0, r4
    3142:	d106      	bne.n	3152 <z_time_slice+0x2a>
    3144:	f7ff ffc8 	bl	30d8 <z_reset_time_slice>
    3148:	f385 8811 	msr	BASEPRI, r5
    314c:	f3bf 8f6f 	isb	sy
    3150:	bd38      	pop	{r3, r4, r5, pc}
    3152:	2100      	movs	r1, #0
    3154:	7c1b      	ldrb	r3, [r3, #16]
    3156:	6011      	str	r1, [r2, #0]
    3158:	4a0a      	ldr	r2, [pc, #40]	; (3184 <z_time_slice+0x5c>)
    315a:	5cd3      	ldrb	r3, [r2, r3]
    315c:	2b00      	cmp	r3, #0
    315e:	d0f3      	beq.n	3148 <z_time_slice+0x20>
    3160:	4620      	mov	r0, r4
    3162:	f7ff ff9b 	bl	309c <thread_is_sliceable>
    3166:	2800      	cmp	r0, #0
    3168:	d0ee      	beq.n	3148 <z_time_slice+0x20>
    316a:	7b63      	ldrb	r3, [r4, #13]
    316c:	06db      	lsls	r3, r3, #27
    316e:	d102      	bne.n	3176 <z_time_slice+0x4e>
    3170:	4620      	mov	r0, r4
    3172:	f7ff fdf7 	bl	2d64 <move_thread_to_end_of_prio_q>
    3176:	4620      	mov	r0, r4
    3178:	e7e4      	b.n	3144 <z_time_slice+0x1c>
    317a:	bf00      	nop
    317c:	200007f4 	.word	0x200007f4
    3180:	20000814 	.word	0x20000814
    3184:	20000828 	.word	0x20000828

00003188 <z_data_copy>:
    3188:	b508      	push	{r3, lr}
    318a:	4806      	ldr	r0, [pc, #24]	; (31a4 <z_data_copy+0x1c>)
    318c:	4a06      	ldr	r2, [pc, #24]	; (31a8 <z_data_copy+0x20>)
    318e:	4907      	ldr	r1, [pc, #28]	; (31ac <z_data_copy+0x24>)
    3190:	1a12      	subs	r2, r2, r0
    3192:	f000 ff82 	bl	409a <z_early_memcpy>
    3196:	e8bd 4008 	ldmia.w	sp!, {r3, lr}
    319a:	4a05      	ldr	r2, [pc, #20]	; (31b0 <z_data_copy+0x28>)
    319c:	4905      	ldr	r1, [pc, #20]	; (31b4 <z_data_copy+0x2c>)
    319e:	4806      	ldr	r0, [pc, #24]	; (31b8 <z_data_copy+0x30>)
    31a0:	f000 bf7b 	b.w	409a <z_early_memcpy>
    31a4:	200004c0 	.word	0x200004c0
    31a8:	20000580 	.word	0x20000580
    31ac:	000047c8 	.word	0x000047c8
    31b0:	00000000 	.word	0x00000000
    31b4:	000047c0 	.word	0x000047c0
    31b8:	200004c0 	.word	0x200004c0

000031bc <elapsed>:
    31bc:	4b03      	ldr	r3, [pc, #12]	; (31cc <elapsed+0x10>)
    31be:	681b      	ldr	r3, [r3, #0]
    31c0:	b90b      	cbnz	r3, 31c6 <elapsed+0xa>
    31c2:	f7fe bc9d 	b.w	1b00 <sys_clock_elapsed>
    31c6:	2000      	movs	r0, #0
    31c8:	4770      	bx	lr
    31ca:	bf00      	nop
    31cc:	20000820 	.word	0x20000820

000031d0 <remove_timeout>:
    31d0:	b530      	push	{r4, r5, lr}
    31d2:	b170      	cbz	r0, 31f2 <remove_timeout+0x22>
    31d4:	4b0b      	ldr	r3, [pc, #44]	; (3204 <remove_timeout+0x34>)
    31d6:	685b      	ldr	r3, [r3, #4]
    31d8:	4298      	cmp	r0, r3
    31da:	d00a      	beq.n	31f2 <remove_timeout+0x22>
    31dc:	6803      	ldr	r3, [r0, #0]
    31de:	b143      	cbz	r3, 31f2 <remove_timeout+0x22>
    31e0:	e9d3 2104 	ldrd	r2, r1, [r3, #16]
    31e4:	e9d0 4504 	ldrd	r4, r5, [r0, #16]
    31e8:	1912      	adds	r2, r2, r4
    31ea:	eb41 0105 	adc.w	r1, r1, r5
    31ee:	e9c3 2104 	strd	r2, r1, [r3, #16]
    31f2:	e9d0 3200 	ldrd	r3, r2, [r0]
    31f6:	6013      	str	r3, [r2, #0]
    31f8:	605a      	str	r2, [r3, #4]
    31fa:	2300      	movs	r3, #0
    31fc:	e9c0 3300 	strd	r3, r3, [r0]
    3200:	bd30      	pop	{r4, r5, pc}
    3202:	bf00      	nop
    3204:	20000570 	.word	0x20000570

00003208 <next_timeout>:
    3208:	b510      	push	{r4, lr}
    320a:	4b0e      	ldr	r3, [pc, #56]	; (3244 <next_timeout+0x3c>)
    320c:	681c      	ldr	r4, [r3, #0]
    320e:	429c      	cmp	r4, r3
    3210:	d104      	bne.n	321c <next_timeout+0x14>
    3212:	f7ff ffd3 	bl	31bc <elapsed>
    3216:	f06f 4000 	mvn.w	r0, #2147483648	; 0x80000000
    321a:	bd10      	pop	{r4, pc}
    321c:	f7ff ffce 	bl	31bc <elapsed>
    3220:	2c00      	cmp	r4, #0
    3222:	d0f8      	beq.n	3216 <next_timeout+0xe>
    3224:	e9d4 3204 	ldrd	r3, r2, [r4, #16]
    3228:	1a1b      	subs	r3, r3, r0
    322a:	eb62 72e0 	sbc.w	r2, r2, r0, asr #31
    322e:	f1b3 4f00 	cmp.w	r3, #2147483648	; 0x80000000
    3232:	f172 0100 	sbcs.w	r1, r2, #0
    3236:	daee      	bge.n	3216 <next_timeout+0xe>
    3238:	2a00      	cmp	r2, #0
    323a:	bfac      	ite	ge
    323c:	4618      	movge	r0, r3
    323e:	2000      	movlt	r0, #0
    3240:	e7eb      	b.n	321a <next_timeout+0x12>
    3242:	bf00      	nop
    3244:	20000570 	.word	0x20000570

00003248 <z_add_timeout>:
    3248:	f1b3 3fff 	cmp.w	r3, #4294967295	; 0xffffffff
    324c:	bf08      	it	eq
    324e:	f1b2 3fff 	cmpeq.w	r2, #4294967295	; 0xffffffff
    3252:	b5f8      	push	{r3, r4, r5, r6, r7, lr}
    3254:	4604      	mov	r4, r0
    3256:	461d      	mov	r5, r3
    3258:	4616      	mov	r6, r2
    325a:	d05e      	beq.n	331a <z_add_timeout+0xd2>
    325c:	6081      	str	r1, [r0, #8]
    325e:	f3ef 8711 	mrs	r7, BASEPRI
    3262:	2320      	movs	r3, #32
    3264:	f383 8812 	msr	BASEPRI_MAX, r3
    3268:	f3bf 8f6f 	isb	sy
    326c:	3201      	adds	r2, #1
    326e:	f175 33ff 	sbcs.w	r3, r5, #4294967295	; 0xffffffff
    3272:	da24      	bge.n	32be <z_add_timeout+0x76>
    3274:	492e      	ldr	r1, [pc, #184]	; (3330 <z_add_timeout+0xe8>)
    3276:	e9d1 2000 	ldrd	r2, r0, [r1]
    327a:	f06f 0301 	mvn.w	r3, #1
    327e:	1a9b      	subs	r3, r3, r2
    3280:	f04f 32ff 	mov.w	r2, #4294967295	; 0xffffffff
    3284:	eb62 0000 	sbc.w	r0, r2, r0
    3288:	1b9e      	subs	r6, r3, r6
    328a:	eb60 0005 	sbc.w	r0, r0, r5
    328e:	2e01      	cmp	r6, #1
    3290:	f170 0300 	sbcs.w	r3, r0, #0
    3294:	da01      	bge.n	329a <z_add_timeout+0x52>
    3296:	2601      	movs	r6, #1
    3298:	2000      	movs	r0, #0
    329a:	e9c4 6004 	strd	r6, r0, [r4, #16]
    329e:	4e25      	ldr	r6, [pc, #148]	; (3334 <z_add_timeout+0xec>)
    32a0:	f8d6 c000 	ldr.w	ip, [r6]
    32a4:	6875      	ldr	r5, [r6, #4]
    32a6:	45b4      	cmp	ip, r6
    32a8:	bf08      	it	eq
    32aa:	f04f 0c00 	moveq.w	ip, #0
    32ae:	f1bc 0f00 	cmp.w	ip, #0
    32b2:	d10d      	bne.n	32d0 <z_add_timeout+0x88>
    32b4:	e9c4 6500 	strd	r6, r5, [r4]
    32b8:	602c      	str	r4, [r5, #0]
    32ba:	6074      	str	r4, [r6, #4]
    32bc:	e01c      	b.n	32f8 <z_add_timeout+0xb0>
    32be:	f7ff ff7d 	bl	31bc <elapsed>
    32c2:	3601      	adds	r6, #1
    32c4:	f145 0500 	adc.w	r5, r5, #0
    32c8:	1836      	adds	r6, r6, r0
    32ca:	eb45 70e0 	adc.w	r0, r5, r0, asr #31
    32ce:	e7e4      	b.n	329a <z_add_timeout+0x52>
    32d0:	e9dc 2004 	ldrd	r2, r0, [ip, #16]
    32d4:	e9d4 3104 	ldrd	r3, r1, [r4, #16]
    32d8:	4293      	cmp	r3, r2
    32da:	eb71 0e00 	sbcs.w	lr, r1, r0
    32de:	da1d      	bge.n	331c <z_add_timeout+0xd4>
    32e0:	1ad2      	subs	r2, r2, r3
    32e2:	f8dc 3004 	ldr.w	r3, [ip, #4]
    32e6:	eb60 0001 	sbc.w	r0, r0, r1
    32ea:	e9cc 2004 	strd	r2, r0, [ip, #16]
    32ee:	e9c4 c300 	strd	ip, r3, [r4]
    32f2:	601c      	str	r4, [r3, #0]
    32f4:	f8cc 4004 	str.w	r4, [ip, #4]
    32f8:	6833      	ldr	r3, [r6, #0]
    32fa:	42b3      	cmp	r3, r6
    32fc:	d009      	beq.n	3312 <z_add_timeout+0xca>
    32fe:	429c      	cmp	r4, r3
    3300:	d107      	bne.n	3312 <z_add_timeout+0xca>
    3302:	4b0d      	ldr	r3, [pc, #52]	; (3338 <z_add_timeout+0xf0>)
    3304:	681c      	ldr	r4, [r3, #0]
    3306:	b924      	cbnz	r4, 3312 <z_add_timeout+0xca>
    3308:	f7ff ff7e 	bl	3208 <next_timeout>
    330c:	4621      	mov	r1, r4
    330e:	f7fe fbc9 	bl	1aa4 <sys_clock_set_timeout>
    3312:	f387 8811 	msr	BASEPRI, r7
    3316:	f3bf 8f6f 	isb	sy
    331a:	bdf8      	pop	{r3, r4, r5, r6, r7, pc}
    331c:	1a9b      	subs	r3, r3, r2
    331e:	eb61 0100 	sbc.w	r1, r1, r0
    3322:	45ac      	cmp	ip, r5
    3324:	e9c4 3104 	strd	r3, r1, [r4, #16]
    3328:	d0c4      	beq.n	32b4 <z_add_timeout+0x6c>
    332a:	f8dc c000 	ldr.w	ip, [ip]
    332e:	e7be      	b.n	32ae <z_add_timeout+0x66>
    3330:	20000738 	.word	0x20000738
    3334:	20000570 	.word	0x20000570
    3338:	20000820 	.word	0x20000820

0000333c <sys_clock_announce>:
    333c:	e92d 4ff8 	stmdb	sp!, {r3, r4, r5, r6, r7, r8, r9, sl, fp, lr}
    3340:	f3ef 8c11 	mrs	ip, BASEPRI
    3344:	2320      	movs	r3, #32
    3346:	f383 8812 	msr	BASEPRI_MAX, r3
    334a:	f3bf 8f6f 	isb	sy
    334e:	f8df a0b0 	ldr.w	sl, [pc, #176]	; 3400 <sys_clock_announce+0xc4>
    3352:	f8df 90b0 	ldr.w	r9, [pc, #176]	; 3404 <sys_clock_announce+0xc8>
    3356:	4f2c      	ldr	r7, [pc, #176]	; (3408 <sys_clock_announce+0xcc>)
    3358:	f8c9 0000 	str.w	r0, [r9]
    335c:	f8da 0000 	ldr.w	r0, [sl]
    3360:	2400      	movs	r4, #0
    3362:	4550      	cmp	r0, sl
    3364:	bf08      	it	eq
    3366:	2000      	moveq	r0, #0
    3368:	2500      	movs	r5, #0
    336a:	e9d7 2100 	ldrd	r2, r1, [r7]
    336e:	f8d9 3000 	ldr.w	r3, [r9]
    3372:	46e0      	mov	r8, ip
    3374:	b378      	cbz	r0, 33d6 <sys_clock_announce+0x9a>
    3376:	e9d0 6c04 	ldrd	r6, ip, [r0, #16]
    337a:	ea4f 7ee3 	mov.w	lr, r3, asr #31
    337e:	42b3      	cmp	r3, r6
    3380:	eb7e 0b0c 	sbcs.w	fp, lr, ip
    3384:	da05      	bge.n	3392 <sys_clock_announce+0x56>
    3386:	1af6      	subs	r6, r6, r3
    3388:	eb6c 040e 	sbc.w	r4, ip, lr
    338c:	e9c0 6404 	strd	r6, r4, [r0, #16]
    3390:	e021      	b.n	33d6 <sys_clock_announce+0x9a>
    3392:	18b2      	adds	r2, r6, r2
    3394:	eb41 71e6 	adc.w	r1, r1, r6, asr #31
    3398:	e9c0 4504 	strd	r4, r5, [r0, #16]
    339c:	e9c7 2100 	strd	r2, r1, [r7]
    33a0:	f7ff ff16 	bl	31d0 <remove_timeout>
    33a4:	f388 8811 	msr	BASEPRI, r8
    33a8:	f3bf 8f6f 	isb	sy
    33ac:	6883      	ldr	r3, [r0, #8]
    33ae:	4798      	blx	r3
    33b0:	f3ef 8811 	mrs	r8, BASEPRI
    33b4:	2320      	movs	r3, #32
    33b6:	f383 8812 	msr	BASEPRI_MAX, r3
    33ba:	f3bf 8f6f 	isb	sy
    33be:	f8d9 3000 	ldr.w	r3, [r9]
    33c2:	f8da 0000 	ldr.w	r0, [sl]
    33c6:	1b9b      	subs	r3, r3, r6
    33c8:	4550      	cmp	r0, sl
    33ca:	46c4      	mov	ip, r8
    33cc:	f8c9 3000 	str.w	r3, [r9]
    33d0:	d1cb      	bne.n	336a <sys_clock_announce+0x2e>
    33d2:	e9d7 2100 	ldrd	r2, r1, [r7]
    33d6:	189a      	adds	r2, r3, r2
    33d8:	eb41 73e3 	adc.w	r3, r1, r3, asr #31
    33dc:	2400      	movs	r4, #0
    33de:	e9c7 2300 	strd	r2, r3, [r7]
    33e2:	f8c9 4000 	str.w	r4, [r9]
    33e6:	f7ff ff0f 	bl	3208 <next_timeout>
    33ea:	4621      	mov	r1, r4
    33ec:	f7fe fb5a 	bl	1aa4 <sys_clock_set_timeout>
    33f0:	f388 8811 	msr	BASEPRI, r8
    33f4:	f3bf 8f6f 	isb	sy
    33f8:	e8bd 4ff8 	ldmia.w	sp!, {r3, r4, r5, r6, r7, r8, r9, sl, fp, lr}
    33fc:	f7ff be94 	b.w	3128 <z_time_slice>
    3400:	20000570 	.word	0x20000570
    3404:	20000820 	.word	0x20000820
    3408:	20000738 	.word	0x20000738

0000340c <sys_clock_tick_get>:
    340c:	b510      	push	{r4, lr}
    340e:	f3ef 8411 	mrs	r4, BASEPRI
    3412:	2320      	movs	r3, #32
    3414:	f383 8812 	msr	BASEPRI_MAX, r3
    3418:	f3bf 8f6f 	isb	sy
    341c:	f7ff fece 	bl	31bc <elapsed>
    3420:	4a05      	ldr	r2, [pc, #20]	; (3438 <sys_clock_tick_get+0x2c>)
    3422:	4603      	mov	r3, r0
    3424:	e9d2 0100 	ldrd	r0, r1, [r2]
    3428:	1818      	adds	r0, r3, r0
    342a:	eb41 71e3 	adc.w	r1, r1, r3, asr #31
    342e:	f384 8811 	msr	BASEPRI, r4
    3432:	f3bf 8f6f 	isb	sy
    3436:	bd10      	pop	{r4, pc}
    3438:	20000738 	.word	0x20000738

0000343c <boot_banner>:
    343c:	4801      	ldr	r0, [pc, #4]	; (3444 <boot_banner+0x8>)
    343e:	f000 badd 	b.w	39fc <printk>
    3442:	bf00      	nop
    3444:	00004780 	.word	0x00004780

00003448 <printf>:
    3448:	b40f      	push	{r0, r1, r2, r3}
    344a:	b507      	push	{r0, r1, r2, lr}
    344c:	4b06      	ldr	r3, [pc, #24]	; (3468 <printf+0x20>)
    344e:	aa04      	add	r2, sp, #16
    3450:	6818      	ldr	r0, [r3, #0]
    3452:	f852 1b04 	ldr.w	r1, [r2], #4
    3456:	9201      	str	r2, [sp, #4]
    3458:	f000 f808 	bl	346c <__l_vfprintf>
    345c:	b003      	add	sp, #12
    345e:	f85d eb04 	ldr.w	lr, [sp], #4
    3462:	b004      	add	sp, #16
    3464:	4770      	bx	lr
    3466:	bf00      	nop
    3468:	000045d4 	.word	0x000045d4

0000346c <__l_vfprintf>:
    346c:	e92d 4ff0 	stmdb	sp!, {r4, r5, r6, r7, r8, r9, sl, fp, lr}
    3470:	b08d      	sub	sp, #52	; 0x34
    3472:	6843      	ldr	r3, [r0, #4]
    3474:	9302      	str	r3, [sp, #8]
    3476:	7883      	ldrb	r3, [r0, #2]
    3478:	4615      	mov	r5, r2
    347a:	079a      	lsls	r2, r3, #30
    347c:	4680      	mov	r8, r0
    347e:	f140 810d 	bpl.w	369c <__l_vfprintf+0x230>
    3482:	2400      	movs	r4, #0
    3484:	780e      	ldrb	r6, [r1, #0]
    3486:	2e00      	cmp	r6, #0
    3488:	f000 810a 	beq.w	36a0 <__l_vfprintf+0x234>
    348c:	2e25      	cmp	r6, #37	; 0x25
    348e:	d00b      	beq.n	34a8 <__l_vfprintf+0x3c>
    3490:	1c4b      	adds	r3, r1, #1
    3492:	9303      	str	r3, [sp, #12]
    3494:	3401      	adds	r4, #1
    3496:	9b02      	ldr	r3, [sp, #8]
    3498:	4641      	mov	r1, r8
    349a:	4630      	mov	r0, r6
    349c:	4798      	blx	r3
    349e:	2800      	cmp	r0, #0
    34a0:	f2c0 80f6 	blt.w	3690 <__l_vfprintf+0x224>
    34a4:	9903      	ldr	r1, [sp, #12]
    34a6:	e7ed      	b.n	3484 <__l_vfprintf+0x18>
    34a8:	784e      	ldrb	r6, [r1, #1]
    34aa:	1c8b      	adds	r3, r1, #2
    34ac:	2e25      	cmp	r6, #37	; 0x25
    34ae:	9303      	str	r3, [sp, #12]
    34b0:	d0f0      	beq.n	3494 <__l_vfprintf+0x28>
    34b2:	2700      	movs	r7, #0
    34b4:	46b9      	mov	r9, r7
    34b6:	46bb      	mov	fp, r7
    34b8:	f1bb 0f1f 	cmp.w	fp, #31
    34bc:	d838      	bhi.n	3530 <__l_vfprintf+0xc4>
    34be:	f1a6 0320 	sub.w	r3, r6, #32
    34c2:	2b10      	cmp	r3, #16
    34c4:	d80a      	bhi.n	34dc <__l_vfprintf+0x70>
    34c6:	e8df f003 	tbb	[pc, r3]
    34ca:	092a      	.short	0x092a
    34cc:	09093009 	.word	0x09093009
    34d0:	09092109 	.word	0x09092109
    34d4:	2d092809 	.word	0x2d092809
    34d8:	0909      	.short	0x0909
    34da:	1f          	.byte	0x1f
    34db:	00          	.byte	0x00
    34dc:	f1a6 0330 	sub.w	r3, r6, #48	; 0x30
    34e0:	2b09      	cmp	r3, #9
    34e2:	d933      	bls.n	354c <__l_vfprintf+0xe0>
    34e4:	2e2a      	cmp	r6, #42	; 0x2a
    34e6:	d137      	bne.n	3558 <__l_vfprintf+0xec>
    34e8:	f01b 0f40 	tst.w	fp, #64	; 0x40
    34ec:	f855 3b04 	ldr.w	r3, [r5], #4
    34f0:	f040 8082 	bne.w	35f8 <__l_vfprintf+0x18c>
    34f4:	2b00      	cmp	r3, #0
    34f6:	bfa7      	ittee	ge
    34f8:	f04b 0b20 	orrge.w	fp, fp, #32
    34fc:	4699      	movge	r9, r3
    34fe:	f1c3 0900 	rsblt	r9, r3, #0
    3502:	f04b 0b28 	orrlt.w	fp, fp, #40	; 0x28
    3506:	e001      	b.n	350c <__l_vfprintf+0xa0>
    3508:	f04b 0b01 	orr.w	fp, fp, #1
    350c:	9b03      	ldr	r3, [sp, #12]
    350e:	f813 6b01 	ldrb.w	r6, [r3], #1
    3512:	9303      	str	r3, [sp, #12]
    3514:	2e00      	cmp	r6, #0
    3516:	d1cf      	bne.n	34b8 <__l_vfprintf+0x4c>
    3518:	e030      	b.n	357c <__l_vfprintf+0x110>
    351a:	f04b 0b02 	orr.w	fp, fp, #2
    351e:	f04b 0b04 	orr.w	fp, fp, #4
    3522:	e7f3      	b.n	350c <__l_vfprintf+0xa0>
    3524:	f04b 0b08 	orr.w	fp, fp, #8
    3528:	e7f0      	b.n	350c <__l_vfprintf+0xa0>
    352a:	f04b 0b10 	orr.w	fp, fp, #16
    352e:	e7ed      	b.n	350c <__l_vfprintf+0xa0>
    3530:	f1bb 0f7f 	cmp.w	fp, #127	; 0x7f
    3534:	d819      	bhi.n	356a <__l_vfprintf+0xfe>
    3536:	f1a6 0330 	sub.w	r3, r6, #48	; 0x30
    353a:	2b09      	cmp	r3, #9
    353c:	d8d2      	bhi.n	34e4 <__l_vfprintf+0x78>
    353e:	f01b 0f40 	tst.w	fp, #64	; 0x40
    3542:	d003      	beq.n	354c <__l_vfprintf+0xe0>
    3544:	210a      	movs	r1, #10
    3546:	fb01 3707 	mla	r7, r1, r7, r3
    354a:	e7df      	b.n	350c <__l_vfprintf+0xa0>
    354c:	210a      	movs	r1, #10
    354e:	fb01 3909 	mla	r9, r1, r9, r3
    3552:	f04b 0b20 	orr.w	fp, fp, #32
    3556:	e7d9      	b.n	350c <__l_vfprintf+0xa0>
    3558:	2e2e      	cmp	r6, #46	; 0x2e
    355a:	d106      	bne.n	356a <__l_vfprintf+0xfe>
    355c:	f01b 0f40 	tst.w	fp, #64	; 0x40
    3560:	f040 809e 	bne.w	36a0 <__l_vfprintf+0x234>
    3564:	f04b 0b40 	orr.w	fp, fp, #64	; 0x40
    3568:	e7d0      	b.n	350c <__l_vfprintf+0xa0>
    356a:	2e6c      	cmp	r6, #108	; 0x6c
    356c:	d031      	beq.n	35d2 <__l_vfprintf+0x166>
    356e:	d82b      	bhi.n	35c8 <__l_vfprintf+0x15c>
    3570:	2e68      	cmp	r6, #104	; 0x68
    3572:	d036      	beq.n	35e2 <__l_vfprintf+0x176>
    3574:	2e6a      	cmp	r6, #106	; 0x6a
    3576:	d03c      	beq.n	35f2 <__l_vfprintf+0x186>
    3578:	2e4c      	cmp	r6, #76	; 0x4c
    357a:	d03a      	beq.n	35f2 <__l_vfprintf+0x186>
    357c:	2f00      	cmp	r7, #0
    357e:	f046 0320 	orr.w	r3, r6, #32
    3582:	bfb8      	it	lt
    3584:	f02b 0240 	biclt.w	r2, fp, #64	; 0x40
    3588:	f1a3 0165 	sub.w	r1, r3, #101	; 0x65
    358c:	bfbc      	itt	lt
    358e:	fa1f fb82 	uxthlt.w	fp, r2
    3592:	2700      	movlt	r7, #0
    3594:	2902      	cmp	r1, #2
    3596:	d901      	bls.n	359c <__l_vfprintf+0x130>
    3598:	2b61      	cmp	r3, #97	; 0x61
    359a:	d12f      	bne.n	35fc <__l_vfprintf+0x190>
    359c:	3507      	adds	r5, #7
    359e:	f025 0507 	bic.w	r5, r5, #7
    35a2:	f8df a2ac 	ldr.w	sl, [pc, #684]	; 3850 <__l_vfprintf+0x3e4>
    35a6:	3508      	adds	r5, #8
    35a8:	2707      	movs	r7, #7
    35aa:	f01b 0f08 	tst.w	fp, #8
    35ae:	d066      	beq.n	367e <__l_vfprintf+0x212>
    35b0:	eb0a 0b07 	add.w	fp, sl, r7
    35b4:	4656      	mov	r6, sl
    35b6:	455e      	cmp	r6, fp
    35b8:	d163      	bne.n	3682 <__l_vfprintf+0x216>
    35ba:	eba4 0a0a 	sub.w	sl, r4, sl
    35be:	eb06 020a 	add.w	r2, r6, sl
    35c2:	eba9 0907 	sub.w	r9, r9, r7
    35c6:	e16f      	b.n	38a8 <__l_vfprintf+0x43c>
    35c8:	2e74      	cmp	r6, #116	; 0x74
    35ca:	d09f      	beq.n	350c <__l_vfprintf+0xa0>
    35cc:	2e7a      	cmp	r6, #122	; 0x7a
    35ce:	d09d      	beq.n	350c <__l_vfprintf+0xa0>
    35d0:	e7d4      	b.n	357c <__l_vfprintf+0x110>
    35d2:	f01b 0f80 	tst.w	fp, #128	; 0x80
    35d6:	bf18      	it	ne
    35d8:	f44b 7b00 	orrne.w	fp, fp, #512	; 0x200
    35dc:	f04b 0b80 	orr.w	fp, fp, #128	; 0x80
    35e0:	e794      	b.n	350c <__l_vfprintf+0xa0>
    35e2:	f41b 7f80 	tst.w	fp, #256	; 0x100
    35e6:	bf18      	it	ne
    35e8:	f44b 7b00 	orrne.w	fp, fp, #512	; 0x200
    35ec:	f44b 7b80 	orr.w	fp, fp, #256	; 0x100
    35f0:	e78c      	b.n	350c <__l_vfprintf+0xa0>
    35f2:	f44b 7b20 	orr.w	fp, fp, #640	; 0x280
    35f6:	e789      	b.n	350c <__l_vfprintf+0xa0>
    35f8:	461f      	mov	r7, r3
    35fa:	e787      	b.n	350c <__l_vfprintf+0xa0>
    35fc:	f1a6 0163 	sub.w	r1, r6, #99	; 0x63
    3600:	2912      	cmp	r1, #18
    3602:	f200 80f0 	bhi.w	37e6 <__l_vfprintf+0x37a>
    3606:	e8df f011 	tbh	[pc, r1, lsl #1]
    360a:	0013      	.short	0x0013
    360c:	00ee004f 	.word	0x00ee004f
    3610:	00ee00ee 	.word	0x00ee00ee
    3614:	004f00ee 	.word	0x004f00ee
    3618:	00ee00ee 	.word	0x00ee00ee
    361c:	00ee00ee 	.word	0x00ee00ee
    3620:	00fe00ee 	.word	0x00fe00ee
    3624:	00ee00e9 	.word	0x00ee00e9
    3628:	001b00ee 	.word	0x001b00ee
    362c:	00af00ee 	.word	0x00af00ee
    3630:	f855 3b04 	ldr.w	r3, [r5], #4
    3634:	f88d 3018 	strb.w	r3, [sp, #24]
    3638:	2701      	movs	r7, #1
    363a:	f10d 0a18 	add.w	sl, sp, #24
    363e:	e7b4      	b.n	35aa <__l_vfprintf+0x13e>
    3640:	f855 ab04 	ldr.w	sl, [r5], #4
    3644:	4b83      	ldr	r3, [pc, #524]	; (3854 <__l_vfprintf+0x3e8>)
    3646:	f1ba 0f00 	cmp.w	sl, #0
    364a:	bf08      	it	eq
    364c:	469a      	moveq	sl, r3
    364e:	f01b 0f40 	tst.w	fp, #64	; 0x40
    3652:	bf14      	ite	ne
    3654:	4639      	movne	r1, r7
    3656:	f04f 31ff 	moveq.w	r1, #4294967295	; 0xffffffff
    365a:	4650      	mov	r0, sl
    365c:	f000 fe11 	bl	4282 <strnlen>
    3660:	4607      	mov	r7, r0
    3662:	e7a2      	b.n	35aa <__l_vfprintf+0x13e>
    3664:	9b02      	ldr	r3, [sp, #8]
    3666:	4641      	mov	r1, r8
    3668:	2020      	movs	r0, #32
    366a:	4798      	blx	r3
    366c:	2800      	cmp	r0, #0
    366e:	db0f      	blt.n	3690 <__l_vfprintf+0x224>
    3670:	3e01      	subs	r6, #1
    3672:	42b7      	cmp	r7, r6
    3674:	d3f6      	bcc.n	3664 <__l_vfprintf+0x1f8>
    3676:	444c      	add	r4, r9
    3678:	1ba4      	subs	r4, r4, r6
    367a:	46b1      	mov	r9, r6
    367c:	e798      	b.n	35b0 <__l_vfprintf+0x144>
    367e:	464e      	mov	r6, r9
    3680:	e7f7      	b.n	3672 <__l_vfprintf+0x206>
    3682:	f816 0b01 	ldrb.w	r0, [r6], #1
    3686:	9b02      	ldr	r3, [sp, #8]
    3688:	4641      	mov	r1, r8
    368a:	4798      	blx	r3
    368c:	2800      	cmp	r0, #0
    368e:	da92      	bge.n	35b6 <__l_vfprintf+0x14a>
    3690:	f898 3002 	ldrb.w	r3, [r8, #2]
    3694:	f043 0304 	orr.w	r3, r3, #4
    3698:	f888 3002 	strb.w	r3, [r8, #2]
    369c:	f04f 34ff 	mov.w	r4, #4294967295	; 0xffffffff
    36a0:	4620      	mov	r0, r4
    36a2:	b00d      	add	sp, #52	; 0x34
    36a4:	e8bd 8ff0 	ldmia.w	sp!, {r4, r5, r6, r7, r8, r9, sl, fp, pc}
    36a8:	f01b 0f80 	tst.w	fp, #128	; 0x80
    36ac:	d034      	beq.n	3718 <__l_vfprintf+0x2ac>
    36ae:	f41b 7f00 	tst.w	fp, #512	; 0x200
    36b2:	d02c      	beq.n	370e <__l_vfprintf+0x2a2>
    36b4:	3507      	adds	r5, #7
    36b6:	f025 0507 	bic.w	r5, r5, #7
    36ba:	46aa      	mov	sl, r5
    36bc:	6869      	ldr	r1, [r5, #4]
    36be:	f85a 0b08 	ldr.w	r0, [sl], #8
    36c2:	f02b 0510 	bic.w	r5, fp, #16
    36c6:	2900      	cmp	r1, #0
    36c8:	b2ad      	uxth	r5, r5
    36ca:	da37      	bge.n	373c <__l_vfprintf+0x2d0>
    36cc:	4240      	negs	r0, r0
    36ce:	eb61 0141 	sbc.w	r1, r1, r1, lsl #1
    36d2:	f445 6580 	orr.w	r5, r5, #1024	; 0x400
    36d6:	f10d 0b18 	add.w	fp, sp, #24
    36da:	230a      	movs	r3, #10
    36dc:	465a      	mov	r2, fp
    36de:	f000 fddc 	bl	429a <__ultoa_invert>
    36e2:	eba0 030b 	sub.w	r3, r0, fp
    36e6:	9301      	str	r3, [sp, #4]
    36e8:	066b      	lsls	r3, r5, #25
    36ea:	d562      	bpl.n	37b2 <__l_vfprintf+0x346>
    36ec:	9b01      	ldr	r3, [sp, #4]
    36ee:	f025 0101 	bic.w	r1, r5, #1
    36f2:	429f      	cmp	r7, r3
    36f4:	b289      	uxth	r1, r1
    36f6:	f340 80a1 	ble.w	383c <__l_vfprintf+0x3d0>
    36fa:	2e00      	cmp	r6, #0
    36fc:	f000 8099 	beq.w	3832 <__l_vfprintf+0x3c6>
    3700:	f015 0210 	ands.w	r2, r5, #16
    3704:	f040 809c 	bne.w	3840 <__l_vfprintf+0x3d4>
    3708:	46bb      	mov	fp, r7
    370a:	460d      	mov	r5, r1
    370c:	e023      	b.n	3756 <__l_vfprintf+0x2ea>
    370e:	46aa      	mov	sl, r5
    3710:	f85a 0b04 	ldr.w	r0, [sl], #4
    3714:	17c1      	asrs	r1, r0, #31
    3716:	e7d4      	b.n	36c2 <__l_vfprintf+0x256>
    3718:	46aa      	mov	sl, r5
    371a:	f41b 7f80 	tst.w	fp, #256	; 0x100
    371e:	f85a 1b04 	ldr.w	r1, [sl], #4
    3722:	d101      	bne.n	3728 <__l_vfprintf+0x2bc>
    3724:	4608      	mov	r0, r1
    3726:	e7f5      	b.n	3714 <__l_vfprintf+0x2a8>
    3728:	f41b 7f00 	tst.w	fp, #512	; 0x200
    372c:	bf15      	itete	ne
    372e:	b248      	sxtbne	r0, r1
    3730:	b208      	sxtheq	r0, r1
    3732:	f341 11c0 	sbfxne	r1, r1, #7, #1
    3736:	f341 31c0 	sbfxeq	r1, r1, #15, #1
    373a:	e7c2      	b.n	36c2 <__l_vfprintf+0x256>
    373c:	ea50 0301 	orrs.w	r3, r0, r1
    3740:	d1c9      	bne.n	36d6 <__l_vfprintf+0x26a>
    3742:	f01b 0f40 	tst.w	fp, #64	; 0x40
    3746:	d0c6      	beq.n	36d6 <__l_vfprintf+0x26a>
    3748:	2f00      	cmp	r7, #0
    374a:	d1c4      	bne.n	36d6 <__l_vfprintf+0x26a>
    374c:	f02b 0211 	bic.w	r2, fp, #17
    3750:	b295      	uxth	r5, r2
    3752:	46bb      	mov	fp, r7
    3754:	9701      	str	r7, [sp, #4]
    3756:	f240 4106 	movw	r1, #1030	; 0x406
    375a:	ea15 0201 	ands.w	r2, r5, r1
    375e:	bf1c      	itt	ne
    3760:	f10b 0b01 	addne.w	fp, fp, #1
    3764:	2200      	movne	r2, #0
    3766:	e02c      	b.n	37c2 <__l_vfprintf+0x356>
    3768:	f02b 0210 	bic.w	r2, fp, #16
    376c:	fa1f fb82 	uxth.w	fp, r2
    3770:	230a      	movs	r3, #10
    3772:	f01b 0c80 	ands.w	ip, fp, #128	; 0x80
    3776:	d049      	beq.n	380c <__l_vfprintf+0x3a0>
    3778:	f41b 7100 	ands.w	r1, fp, #512	; 0x200
    377c:	bf1d      	ittte	ne
    377e:	3507      	addne	r5, #7
    3780:	f025 0507 	bicne.w	r5, r5, #7
    3784:	46aa      	movne	sl, r5
    3786:	46aa      	moveq	sl, r5
    3788:	bf1a      	itte	ne
    378a:	f85a 0b08 	ldrne.w	r0, [sl], #8
    378e:	6869      	ldrne	r1, [r5, #4]
    3790:	f85a 0b04 	ldreq.w	r0, [sl], #4
    3794:	ea50 0501 	orrs.w	r5, r0, r1
    3798:	d145      	bne.n	3826 <__l_vfprintf+0x3ba>
    379a:	f02b 0516 	bic.w	r5, fp, #22
    379e:	f01b 0f40 	tst.w	fp, #64	; 0x40
    37a2:	b2ad      	uxth	r5, r5
    37a4:	d042      	beq.n	382c <__l_vfprintf+0x3c0>
    37a6:	2f00      	cmp	r7, #0
    37a8:	d140      	bne.n	382c <__l_vfprintf+0x3c0>
    37aa:	f02b 0217 	bic.w	r2, fp, #23
    37ae:	b295      	uxth	r5, r2
    37b0:	9701      	str	r7, [sp, #4]
    37b2:	f015 0210 	ands.w	r2, r5, #16
    37b6:	d048      	beq.n	384a <__l_vfprintf+0x3de>
    37b8:	9b01      	ldr	r3, [sp, #4]
    37ba:	2e00      	cmp	r6, #0
    37bc:	d142      	bne.n	3844 <__l_vfprintf+0x3d8>
    37be:	f103 0b01 	add.w	fp, r3, #1
    37c2:	0729      	lsls	r1, r5, #28
    37c4:	d45a      	bmi.n	387c <__l_vfprintf+0x410>
    37c6:	07eb      	lsls	r3, r5, #31
    37c8:	d506      	bpl.n	37d8 <__l_vfprintf+0x36c>
    37ca:	45d9      	cmp	r9, fp
    37cc:	dd6f      	ble.n	38ae <__l_vfprintf+0x442>
    37ce:	9901      	ldr	r1, [sp, #4]
    37d0:	eba9 030b 	sub.w	r3, r9, fp
    37d4:	185f      	adds	r7, r3, r1
    37d6:	46cb      	mov	fp, r9
    37d8:	465b      	mov	r3, fp
    37da:	e049      	b.n	3870 <__l_vfprintf+0x404>
    37dc:	f04b 0b10 	orr.w	fp, fp, #16
    37e0:	2310      	movs	r3, #16
    37e2:	2678      	movs	r6, #120	; 0x78
    37e4:	e7c5      	b.n	3772 <__l_vfprintf+0x306>
    37e6:	2b78      	cmp	r3, #120	; 0x78
    37e8:	d104      	bne.n	37f4 <__l_vfprintf+0x388>
    37ea:	f1c6 0378 	rsb	r3, r6, #120	; 0x78
    37ee:	f043 0310 	orr.w	r3, r3, #16
    37f2:	e7be      	b.n	3772 <__l_vfprintf+0x306>
    37f4:	9b02      	ldr	r3, [sp, #8]
    37f6:	4641      	mov	r1, r8
    37f8:	2025      	movs	r0, #37	; 0x25
    37fa:	4798      	blx	r3
    37fc:	2800      	cmp	r0, #0
    37fe:	f6ff af47 	blt.w	3690 <__l_vfprintf+0x224>
    3802:	3402      	adds	r4, #2
    3804:	e647      	b.n	3496 <__l_vfprintf+0x2a>
    3806:	2308      	movs	r3, #8
    3808:	2600      	movs	r6, #0
    380a:	e7b2      	b.n	3772 <__l_vfprintf+0x306>
    380c:	46aa      	mov	sl, r5
    380e:	f41b 7180 	ands.w	r1, fp, #256	; 0x100
    3812:	f85a 0b04 	ldr.w	r0, [sl], #4
    3816:	d0bd      	beq.n	3794 <__l_vfprintf+0x328>
    3818:	f41b 7100 	ands.w	r1, fp, #512	; 0x200
    381c:	bf1a      	itte	ne
    381e:	b2c0      	uxtbne	r0, r0
    3820:	4661      	movne	r1, ip
    3822:	b280      	uxtheq	r0, r0
    3824:	e7b6      	b.n	3794 <__l_vfprintf+0x328>
    3826:	f02b 0206 	bic.w	r2, fp, #6
    382a:	b295      	uxth	r5, r2
    382c:	f10d 0b18 	add.w	fp, sp, #24
    3830:	e754      	b.n	36dc <__l_vfprintf+0x270>
    3832:	f025 0511 	bic.w	r5, r5, #17
    3836:	b2ad      	uxth	r5, r5
    3838:	46bb      	mov	fp, r7
    383a:	e78c      	b.n	3756 <__l_vfprintf+0x2ea>
    383c:	460d      	mov	r5, r1
    383e:	e7b8      	b.n	37b2 <__l_vfprintf+0x346>
    3840:	463b      	mov	r3, r7
    3842:	460d      	mov	r5, r1
    3844:	f103 0b02 	add.w	fp, r3, #2
    3848:	e7bb      	b.n	37c2 <__l_vfprintf+0x356>
    384a:	f8dd b004 	ldr.w	fp, [sp, #4]
    384e:	e782      	b.n	3756 <__l_vfprintf+0x2ea>
    3850:	000047b5 	.word	0x000047b5
    3854:	000047ae 	.word	0x000047ae
    3858:	e9cd 3204 	strd	r3, r2, [sp, #16]
    385c:	4641      	mov	r1, r8
    385e:	9b02      	ldr	r3, [sp, #8]
    3860:	2020      	movs	r0, #32
    3862:	4798      	blx	r3
    3864:	2800      	cmp	r0, #0
    3866:	f6ff af13 	blt.w	3690 <__l_vfprintf+0x224>
    386a:	9b04      	ldr	r3, [sp, #16]
    386c:	9a05      	ldr	r2, [sp, #20]
    386e:	3301      	adds	r3, #1
    3870:	4599      	cmp	r9, r3
    3872:	dcf1      	bgt.n	3858 <__l_vfprintf+0x3ec>
    3874:	eba4 010b 	sub.w	r1, r4, fp
    3878:	18cc      	adds	r4, r1, r3
    387a:	469b      	mov	fp, r3
    387c:	b30a      	cbz	r2, 38c2 <__l_vfprintf+0x456>
    387e:	9b02      	ldr	r3, [sp, #8]
    3880:	4641      	mov	r1, r8
    3882:	2030      	movs	r0, #48	; 0x30
    3884:	4798      	blx	r3
    3886:	2800      	cmp	r0, #0
    3888:	f6ff af02 	blt.w	3690 <__l_vfprintf+0x224>
    388c:	b98e      	cbnz	r6, 38b2 <__l_vfprintf+0x446>
    388e:	3401      	adds	r4, #1
    3890:	4427      	add	r7, r4
    3892:	9b01      	ldr	r3, [sp, #4]
    3894:	1b39      	subs	r1, r7, r4
    3896:	4299      	cmp	r1, r3
    3898:	dc24      	bgt.n	38e4 <__l_vfprintf+0x478>
    389a:	461d      	mov	r5, r3
    389c:	bb5d      	cbnz	r5, 38f6 <__l_vfprintf+0x48a>
    389e:	9a01      	ldr	r2, [sp, #4]
    38a0:	eba9 090b 	sub.w	r9, r9, fp
    38a4:	4422      	add	r2, r4
    38a6:	4655      	mov	r5, sl
    38a8:	4614      	mov	r4, r2
    38aa:	4491      	add	r9, r2
    38ac:	e035      	b.n	391a <__l_vfprintf+0x4ae>
    38ae:	9f01      	ldr	r7, [sp, #4]
    38b0:	e792      	b.n	37d8 <__l_vfprintf+0x36c>
    38b2:	3402      	adds	r4, #2
    38b4:	4641      	mov	r1, r8
    38b6:	4630      	mov	r0, r6
    38b8:	9b02      	ldr	r3, [sp, #8]
    38ba:	4798      	blx	r3
    38bc:	2800      	cmp	r0, #0
    38be:	dae7      	bge.n	3890 <__l_vfprintf+0x424>
    38c0:	e6e6      	b.n	3690 <__l_vfprintf+0x224>
    38c2:	f240 4106 	movw	r1, #1030	; 0x406
    38c6:	420d      	tst	r5, r1
    38c8:	d0e2      	beq.n	3890 <__l_vfprintf+0x424>
    38ca:	f015 0f02 	tst.w	r5, #2
    38ce:	bf14      	ite	ne
    38d0:	202b      	movne	r0, #43	; 0x2b
    38d2:	2020      	moveq	r0, #32
    38d4:	f415 6f80 	tst.w	r5, #1024	; 0x400
    38d8:	f104 0401 	add.w	r4, r4, #1
    38dc:	4641      	mov	r1, r8
    38de:	bf18      	it	ne
    38e0:	202d      	movne	r0, #45	; 0x2d
    38e2:	e7e9      	b.n	38b8 <__l_vfprintf+0x44c>
    38e4:	9b02      	ldr	r3, [sp, #8]
    38e6:	4641      	mov	r1, r8
    38e8:	2030      	movs	r0, #48	; 0x30
    38ea:	4798      	blx	r3
    38ec:	2800      	cmp	r0, #0
    38ee:	f104 0401 	add.w	r4, r4, #1
    38f2:	dace      	bge.n	3892 <__l_vfprintf+0x426>
    38f4:	e6cc      	b.n	3690 <__l_vfprintf+0x224>
    38f6:	ab06      	add	r3, sp, #24
    38f8:	3d01      	subs	r5, #1
    38fa:	4641      	mov	r1, r8
    38fc:	5d58      	ldrb	r0, [r3, r5]
    38fe:	9b02      	ldr	r3, [sp, #8]
    3900:	4798      	blx	r3
    3902:	2800      	cmp	r0, #0
    3904:	daca      	bge.n	389c <__l_vfprintf+0x430>
    3906:	e6c3      	b.n	3690 <__l_vfprintf+0x224>
    3908:	9b02      	ldr	r3, [sp, #8]
    390a:	4641      	mov	r1, r8
    390c:	2020      	movs	r0, #32
    390e:	4798      	blx	r3
    3910:	2800      	cmp	r0, #0
    3912:	f104 0401 	add.w	r4, r4, #1
    3916:	f6ff aebb 	blt.w	3690 <__l_vfprintf+0x224>
    391a:	eba9 0304 	sub.w	r3, r9, r4
    391e:	2b00      	cmp	r3, #0
    3920:	dcf2      	bgt.n	3908 <__l_vfprintf+0x49c>
    3922:	e5bf      	b.n	34a4 <__l_vfprintf+0x38>

00003924 <_OffsetAbsSyms>:
    3924:	4770      	bx	lr

00003926 <chunk_size>:
    3926:	eb00 00c1 	add.w	r0, r0, r1, lsl #3
    392a:	8840      	ldrh	r0, [r0, #2]
    392c:	0840      	lsrs	r0, r0, #1
    392e:	4770      	bx	lr

00003930 <free_list_add>:
    3930:	b5f8      	push	{r3, r4, r5, r6, r7, lr}
    3932:	4603      	mov	r3, r0
    3934:	f7ff fff7 	bl	3926 <chunk_size>
    3938:	fab0 f080 	clz	r0, r0
    393c:	f1c0 001f 	rsb	r0, r0, #31
    3940:	eb03 0c80 	add.w	ip, r3, r0, lsl #2
    3944:	00ca      	lsls	r2, r1, #3
    3946:	f8dc 6010 	ldr.w	r6, [ip, #16]
    394a:	1d17      	adds	r7, r2, #4
    394c:	460c      	mov	r4, r1
    394e:	3206      	adds	r2, #6
    3950:	b28d      	uxth	r5, r1
    3952:	b956      	cbnz	r6, 396a <free_list_add+0x3a>
    3954:	2101      	movs	r1, #1
    3956:	fa01 f000 	lsl.w	r0, r1, r0
    395a:	68d9      	ldr	r1, [r3, #12]
    395c:	4301      	orrs	r1, r0
    395e:	60d9      	str	r1, [r3, #12]
    3960:	f8cc 4010 	str.w	r4, [ip, #16]
    3964:	53dd      	strh	r5, [r3, r7]
    3966:	529d      	strh	r5, [r3, r2]
    3968:	bdf8      	pop	{r3, r4, r5, r6, r7, pc}
    396a:	00f1      	lsls	r1, r6, #3
    396c:	3104      	adds	r1, #4
    396e:	5a58      	ldrh	r0, [r3, r1]
    3970:	53d8      	strh	r0, [r3, r7]
    3972:	eb03 00c0 	add.w	r0, r3, r0, lsl #3
    3976:	529e      	strh	r6, [r3, r2]
    3978:	80c5      	strh	r5, [r0, #6]
    397a:	525d      	strh	r5, [r3, r1]
    397c:	e7f4      	b.n	3968 <free_list_add+0x38>

0000397e <sys_heap_init>:
    397e:	3a04      	subs	r2, #4
    3980:	e92d 41f0 	stmdb	sp!, {r4, r5, r6, r7, r8, lr}
    3984:	1dcc      	adds	r4, r1, #7
    3986:	4411      	add	r1, r2
    3988:	f024 0407 	bic.w	r4, r4, #7
    398c:	f021 0107 	bic.w	r1, r1, #7
    3990:	1b0e      	subs	r6, r1, r4
    3992:	08f7      	lsrs	r7, r6, #3
    3994:	fab7 f287 	clz	r2, r7
    3998:	f1c2 0524 	rsb	r5, r2, #36	; 0x24
    399c:	00ad      	lsls	r5, r5, #2
    399e:	f04f 0800 	mov.w	r8, #0
    39a2:	3507      	adds	r5, #7
    39a4:	f1c2 0220 	rsb	r2, r2, #32
    39a8:	08ed      	lsrs	r5, r5, #3
    39aa:	6004      	str	r4, [r0, #0]
    39ac:	4641      	mov	r1, r8
    39ae:	60a7      	str	r7, [r4, #8]
    39b0:	f8c4 800c 	str.w	r8, [r4, #12]
    39b4:	0092      	lsls	r2, r2, #2
    39b6:	f104 0010 	add.w	r0, r4, #16
    39ba:	f000 fcd3 	bl	4364 <memset>
    39be:	006b      	lsls	r3, r5, #1
    39c0:	f043 0301 	orr.w	r3, r3, #1
    39c4:	8063      	strh	r3, [r4, #2]
    39c6:	eb04 02c5 	add.w	r2, r4, r5, lsl #3
    39ca:	1b7b      	subs	r3, r7, r5
    39cc:	0059      	lsls	r1, r3, #1
    39ce:	f8a4 8000 	strh.w	r8, [r4]
    39d2:	8051      	strh	r1, [r2, #2]
    39d4:	19a2      	adds	r2, r4, r6
    39d6:	f824 5035 	strh.w	r5, [r4, r5, lsl #3]
    39da:	f8a2 8002 	strh.w	r8, [r2, #2]
    39de:	53a3      	strh	r3, [r4, r6]
    39e0:	eb04 03c7 	add.w	r3, r4, r7, lsl #3
    39e4:	4629      	mov	r1, r5
    39e6:	885a      	ldrh	r2, [r3, #2]
    39e8:	f042 0201 	orr.w	r2, r2, #1
    39ec:	805a      	strh	r2, [r3, #2]
    39ee:	4620      	mov	r0, r4
    39f0:	e8bd 41f0 	ldmia.w	sp!, {r4, r5, r6, r7, r8, lr}
    39f4:	f7ff bf9c 	b.w	3930 <free_list_add>

000039f8 <arch_printk_char_out>:
    39f8:	2000      	movs	r0, #0
    39fa:	4770      	bx	lr

000039fc <printk>:
    39fc:	b40f      	push	{r0, r1, r2, r3}
    39fe:	b507      	push	{r0, r1, r2, lr}
    3a00:	a904      	add	r1, sp, #16
    3a02:	f851 0b04 	ldr.w	r0, [r1], #4
    3a06:	9101      	str	r1, [sp, #4]
    3a08:	f7fc fb92 	bl	130 <vprintk>
    3a0c:	b003      	add	sp, #12
    3a0e:	f85d eb04 	ldr.w	lr, [sp], #4
    3a12:	b004      	add	sp, #16
    3a14:	4770      	bx	lr

00003a16 <process_recheck>:
    3a16:	8b03      	ldrh	r3, [r0, #24]
    3a18:	f013 0307 	ands.w	r3, r3, #7
    3a1c:	d105      	bne.n	3a2a <process_recheck+0x14>
    3a1e:	6803      	ldr	r3, [r0, #0]
    3a20:	2b00      	cmp	r3, #0
    3a22:	bf0c      	ite	eq
    3a24:	2000      	moveq	r0, #0
    3a26:	2003      	movne	r0, #3
    3a28:	4770      	bx	lr
    3a2a:	2b02      	cmp	r3, #2
    3a2c:	d105      	bne.n	3a3a <process_recheck+0x24>
    3a2e:	8b40      	ldrh	r0, [r0, #26]
    3a30:	fab0 f080 	clz	r0, r0
    3a34:	0940      	lsrs	r0, r0, #5
    3a36:	0080      	lsls	r0, r0, #2
    3a38:	4770      	bx	lr
    3a3a:	2b01      	cmp	r3, #1
    3a3c:	d105      	bne.n	3a4a <process_recheck+0x34>
    3a3e:	6803      	ldr	r3, [r0, #0]
    3a40:	2b00      	cmp	r3, #0
    3a42:	bf0c      	ite	eq
    3a44:	2000      	moveq	r0, #0
    3a46:	2005      	movne	r0, #5
    3a48:	4770      	bx	lr
    3a4a:	2000      	movs	r0, #0
    3a4c:	4770      	bx	lr

00003a4e <validate_args>:
    3a4e:	b510      	push	{r4, lr}
    3a50:	460c      	mov	r4, r1
    3a52:	b100      	cbz	r0, 3a56 <validate_args+0x8>
    3a54:	b911      	cbnz	r1, 3a5c <validate_args+0xe>
    3a56:	f06f 0015 	mvn.w	r0, #21
    3a5a:	bd10      	pop	{r4, pc}
    3a5c:	1d08      	adds	r0, r1, #4
    3a5e:	f000 f893 	bl	3b88 <sys_notify_validate>
    3a62:	2800      	cmp	r0, #0
    3a64:	d1f9      	bne.n	3a5a <validate_args+0xc>
    3a66:	68a3      	ldr	r3, [r4, #8]
    3a68:	2b03      	cmp	r3, #3
    3a6a:	d9f6      	bls.n	3a5a <validate_args+0xc>
    3a6c:	e7f3      	b.n	3a56 <validate_args+0x8>

00003a6e <notify_one>:
    3a6e:	e92d 41f0 	stmdb	sp!, {r4, r5, r6, r7, r8, lr}
    3a72:	460d      	mov	r5, r1
    3a74:	4607      	mov	r7, r0
    3a76:	4619      	mov	r1, r3
    3a78:	1d28      	adds	r0, r5, #4
    3a7a:	4690      	mov	r8, r2
    3a7c:	461e      	mov	r6, r3
    3a7e:	f000 f894 	bl	3baa <sys_notify_finalize>
    3a82:	4604      	mov	r4, r0
    3a84:	b138      	cbz	r0, 3a96 <notify_one+0x28>
    3a86:	4633      	mov	r3, r6
    3a88:	4642      	mov	r2, r8
    3a8a:	4629      	mov	r1, r5
    3a8c:	4638      	mov	r0, r7
    3a8e:	46a4      	mov	ip, r4
    3a90:	e8bd 41f0 	ldmia.w	sp!, {r4, r5, r6, r7, r8, lr}
    3a94:	4760      	bx	ip
    3a96:	e8bd 81f0 	ldmia.w	sp!, {r4, r5, r6, r7, r8, pc}

00003a9a <transition_complete>:
    3a9a:	b410      	push	{r4}
    3a9c:	f3ef 8211 	mrs	r2, BASEPRI
    3aa0:	2420      	movs	r4, #32
    3aa2:	f384 8812 	msr	BASEPRI_MAX, r4
    3aa6:	f3bf 8f6f 	isb	sy
    3aaa:	6141      	str	r1, [r0, #20]
    3aac:	bc10      	pop	{r4}
    3aae:	2101      	movs	r1, #1
    3ab0:	f7fc bb70 	b.w	194 <process_event>

00003ab4 <onoff_manager_init>:
    3ab4:	b538      	push	{r3, r4, r5, lr}
    3ab6:	460c      	mov	r4, r1
    3ab8:	4605      	mov	r5, r0
    3aba:	b158      	cbz	r0, 3ad4 <onoff_manager_init+0x20>
    3abc:	b151      	cbz	r1, 3ad4 <onoff_manager_init+0x20>
    3abe:	680b      	ldr	r3, [r1, #0]
    3ac0:	b143      	cbz	r3, 3ad4 <onoff_manager_init+0x20>
    3ac2:	684b      	ldr	r3, [r1, #4]
    3ac4:	b133      	cbz	r3, 3ad4 <onoff_manager_init+0x20>
    3ac6:	221c      	movs	r2, #28
    3ac8:	2100      	movs	r1, #0
    3aca:	f000 fc4b 	bl	4364 <memset>
    3ace:	612c      	str	r4, [r5, #16]
    3ad0:	2000      	movs	r0, #0
    3ad2:	bd38      	pop	{r3, r4, r5, pc}
    3ad4:	f06f 0015 	mvn.w	r0, #21
    3ad8:	e7fb      	b.n	3ad2 <onoff_manager_init+0x1e>

00003ada <onoff_request>:
    3ada:	b570      	push	{r4, r5, r6, lr}
    3adc:	4605      	mov	r5, r0
    3ade:	460e      	mov	r6, r1
    3ae0:	f7ff ffb5 	bl	3a4e <validate_args>
    3ae4:	1e04      	subs	r4, r0, #0
    3ae6:	db14      	blt.n	3b12 <onoff_request+0x38>
    3ae8:	f3ef 8211 	mrs	r2, BASEPRI
    3aec:	2320      	movs	r3, #32
    3aee:	f383 8812 	msr	BASEPRI_MAX, r3
    3af2:	f3bf 8f6f 	isb	sy
    3af6:	8b6b      	ldrh	r3, [r5, #26]
    3af8:	8b2c      	ldrh	r4, [r5, #24]
    3afa:	f64f 71ff 	movw	r1, #65535	; 0xffff
    3afe:	428b      	cmp	r3, r1
    3b00:	f004 0407 	and.w	r4, r4, #7
    3b04:	d107      	bne.n	3b16 <onoff_request+0x3c>
    3b06:	f382 8811 	msr	BASEPRI, r2
    3b0a:	f3bf 8f6f 	isb	sy
    3b0e:	f06f 040a 	mvn.w	r4, #10
    3b12:	4620      	mov	r0, r4
    3b14:	bd70      	pop	{r4, r5, r6, pc}
    3b16:	2c02      	cmp	r4, #2
    3b18:	d10c      	bne.n	3b34 <onoff_request+0x5a>
    3b1a:	3301      	adds	r3, #1
    3b1c:	836b      	strh	r3, [r5, #26]
    3b1e:	f382 8811 	msr	BASEPRI, r2
    3b22:	f3bf 8f6f 	isb	sy
    3b26:	2300      	movs	r3, #0
    3b28:	4622      	mov	r2, r4
    3b2a:	4631      	mov	r1, r6
    3b2c:	4628      	mov	r0, r5
    3b2e:	f7ff ff9e 	bl	3a6e <notify_one>
    3b32:	e7ee      	b.n	3b12 <onoff_request+0x38>
    3b34:	2c06      	cmp	r4, #6
    3b36:	d814      	bhi.n	3b62 <onoff_request+0x88>
    3b38:	e8df f004 	tbb	[pc, r4]
    3b3c:	13131304 	.word	0x13131304
    3b40:	1a04      	.short	0x1a04
    3b42:	04          	.byte	0x04
    3b43:	00          	.byte	0x00
    3b44:	2300      	movs	r3, #0
    3b46:	6033      	str	r3, [r6, #0]
    3b48:	686b      	ldr	r3, [r5, #4]
    3b4a:	b93b      	cbnz	r3, 3b5c <onoff_request+0x82>
    3b4c:	e9c5 6600 	strd	r6, r6, [r5]
    3b50:	b9ac      	cbnz	r4, 3b7e <onoff_request+0xa4>
    3b52:	2102      	movs	r1, #2
    3b54:	4628      	mov	r0, r5
    3b56:	f7fc fb1d 	bl	194 <process_event>
    3b5a:	e7da      	b.n	3b12 <onoff_request+0x38>
    3b5c:	601e      	str	r6, [r3, #0]
    3b5e:	606e      	str	r6, [r5, #4]
    3b60:	e7f6      	b.n	3b50 <onoff_request+0x76>
    3b62:	f382 8811 	msr	BASEPRI, r2
    3b66:	f3bf 8f6f 	isb	sy
    3b6a:	f06f 0404 	mvn.w	r4, #4
    3b6e:	e7d0      	b.n	3b12 <onoff_request+0x38>
    3b70:	f382 8811 	msr	BASEPRI, r2
    3b74:	f3bf 8f6f 	isb	sy
    3b78:	f06f 0485 	mvn.w	r4, #133	; 0x85
    3b7c:	e7c9      	b.n	3b12 <onoff_request+0x38>
    3b7e:	f382 8811 	msr	BASEPRI, r2
    3b82:	f3bf 8f6f 	isb	sy
    3b86:	e7c4      	b.n	3b12 <onoff_request+0x38>

00003b88 <sys_notify_validate>:
    3b88:	4603      	mov	r3, r0
    3b8a:	b158      	cbz	r0, 3ba4 <sys_notify_validate+0x1c>
    3b8c:	6842      	ldr	r2, [r0, #4]
    3b8e:	f002 0203 	and.w	r2, r2, #3
    3b92:	2a01      	cmp	r2, #1
    3b94:	d003      	beq.n	3b9e <sys_notify_validate+0x16>
    3b96:	2a03      	cmp	r2, #3
    3b98:	d104      	bne.n	3ba4 <sys_notify_validate+0x1c>
    3b9a:	6802      	ldr	r2, [r0, #0]
    3b9c:	b112      	cbz	r2, 3ba4 <sys_notify_validate+0x1c>
    3b9e:	2000      	movs	r0, #0
    3ba0:	6098      	str	r0, [r3, #8]
    3ba2:	4770      	bx	lr
    3ba4:	f06f 0015 	mvn.w	r0, #21
    3ba8:	4770      	bx	lr

00003baa <sys_notify_finalize>:
    3baa:	6842      	ldr	r2, [r0, #4]
    3bac:	6081      	str	r1, [r0, #8]
    3bae:	f002 0203 	and.w	r2, r2, #3
    3bb2:	2a03      	cmp	r2, #3
    3bb4:	f04f 0200 	mov.w	r2, #0
    3bb8:	4603      	mov	r3, r0
    3bba:	bf0c      	ite	eq
    3bbc:	6800      	ldreq	r0, [r0, #0]
    3bbe:	4610      	movne	r0, r2
    3bc0:	605a      	str	r2, [r3, #4]
    3bc2:	4770      	bx	lr

00003bc4 <_ConfigAbsSyms>:
    3bc4:	4770      	bx	lr

00003bc6 <z_arm_fatal_error>:
    3bc6:	2801      	cmp	r0, #1
    3bc8:	d101      	bne.n	3bce <z_arm_fatal_error+0x8>
    3bca:	f3ef 8305 	mrs	r3, IPSR
    3bce:	f7fe be19 	b.w	2804 <z_fatal_error>

00003bd2 <z_do_kernel_oops>:
    3bd2:	4601      	mov	r1, r0
    3bd4:	6800      	ldr	r0, [r0, #0]
    3bd6:	f7ff bff6 	b.w	3bc6 <z_arm_fatal_error>

00003bda <z_arm_nmi>:
    3bda:	b508      	push	{r3, lr}
    3bdc:	f7fc fbee 	bl	3bc <z_SysNmiOnReset>
    3be0:	e8bd 4008 	ldmia.w	sp!, {r3, lr}
    3be4:	f7fc bc0e 	b.w	404 <z_arm_exc_exit>

00003be8 <z_irq_spurious>:
    3be8:	2100      	movs	r1, #0
    3bea:	2001      	movs	r0, #1
    3bec:	f7ff bfeb 	b.w	3bc6 <z_arm_fatal_error>

00003bf0 <arch_irq_unlock_outlined>:
    3bf0:	b661      	cpsie	f
    3bf2:	b662      	cpsie	i
    3bf4:	f380 8811 	msr	BASEPRI, r0
    3bf8:	f3bf 8f6f 	isb	sy
    3bfc:	4770      	bx	lr

00003bfe <arch_cpu_idle>:
    3bfe:	b672      	cpsid	i
    3c00:	2300      	movs	r3, #0
    3c02:	f383 8811 	msr	BASEPRI, r3
    3c06:	f3bf 8f6f 	isb	sy
    3c0a:	f3bf 8f4f 	dsb	sy
    3c0e:	bf30      	wfi
    3c10:	b662      	cpsie	i
    3c12:	f3bf 8f6f 	isb	sy
    3c16:	4770      	bx	lr

00003c18 <arch_cpu_atomic_idle>:
    3c18:	b672      	cpsid	i
    3c1a:	2300      	movs	r3, #0
    3c1c:	f383 8811 	msr	BASEPRI, r3
    3c20:	f3bf 8f6f 	isb	sy
    3c24:	f3bf 8f4f 	dsb	sy
    3c28:	bf20      	wfe
    3c2a:	f380 8811 	msr	BASEPRI, r0
    3c2e:	f3bf 8f6f 	isb	sy
    3c32:	b662      	cpsie	i
    3c34:	4770      	bx	lr

00003c36 <size_to_mpu_rasr_size>:
    3c36:	2820      	cmp	r0, #32
    3c38:	d909      	bls.n	3c4e <size_to_mpu_rasr_size+0x18>
    3c3a:	f1b0 4f00 	cmp.w	r0, #2147483648	; 0x80000000
    3c3e:	d808      	bhi.n	3c52 <size_to_mpu_rasr_size+0x1c>
    3c40:	3801      	subs	r0, #1
    3c42:	fab0 f080 	clz	r0, r0
    3c46:	f1c0 001f 	rsb	r0, r0, #31
    3c4a:	0040      	lsls	r0, r0, #1
    3c4c:	4770      	bx	lr
    3c4e:	2008      	movs	r0, #8
    3c50:	4770      	bx	lr
    3c52:	203e      	movs	r0, #62	; 0x3e
    3c54:	4770      	bx	lr

00003c56 <picolibc_put>:
    3c56:	b508      	push	{r3, lr}
    3c58:	f7fc fffc 	bl	c54 <z_impl_zephyr_fputc>
    3c5c:	2000      	movs	r0, #0
    3c5e:	bd08      	pop	{r3, pc}

00003c60 <get_status>:
    3c60:	6903      	ldr	r3, [r0, #16]
    3c62:	b2c9      	uxtb	r1, r1
    3c64:	220c      	movs	r2, #12
    3c66:	fb01 3302 	mla	r3, r1, r2, r3
    3c6a:	6c18      	ldr	r0, [r3, #64]	; 0x40
    3c6c:	f000 0007 	and.w	r0, r0, #7
    3c70:	4770      	bx	lr

00003c72 <stop>:
    3c72:	b570      	push	{r4, r5, r6, lr}
    3c74:	b2c9      	uxtb	r1, r1
    3c76:	6903      	ldr	r3, [r0, #16]
    3c78:	f3ef 8511 	mrs	r5, BASEPRI
    3c7c:	2420      	movs	r4, #32
    3c7e:	f384 8812 	msr	BASEPRI_MAX, r4
    3c82:	f3bf 8f6f 	isb	sy
    3c86:	260c      	movs	r6, #12
    3c88:	fb06 3401 	mla	r4, r6, r1, r3
    3c8c:	6c24      	ldr	r4, [r4, #64]	; 0x40
    3c8e:	f014 04c0 	ands.w	r4, r4, #192	; 0xc0
    3c92:	d008      	beq.n	3ca6 <stop+0x34>
    3c94:	42a2      	cmp	r2, r4
    3c96:	d006      	beq.n	3ca6 <stop+0x34>
    3c98:	f385 8811 	msr	BASEPRI, r5
    3c9c:	f3bf 8f6f 	isb	sy
    3ca0:	f04f 30ff 	mov.w	r0, #4294967295	; 0xffffffff
    3ca4:	bd70      	pop	{r4, r5, r6, pc}
    3ca6:	fb06 3301 	mla	r3, r6, r1, r3
    3caa:	2201      	movs	r2, #1
    3cac:	641a      	str	r2, [r3, #64]	; 0x40
    3cae:	f385 8811 	msr	BASEPRI, r5
    3cb2:	f3bf 8f6f 	isb	sy
    3cb6:	6843      	ldr	r3, [r0, #4]
    3cb8:	eb03 03c1 	add.w	r3, r3, r1, lsl #3
    3cbc:	685b      	ldr	r3, [r3, #4]
    3cbe:	4798      	blx	r3
    3cc0:	2000      	movs	r0, #0
    3cc2:	e7ef      	b.n	3ca4 <stop+0x32>

00003cc4 <api_stop>:
    3cc4:	2280      	movs	r2, #128	; 0x80
    3cc6:	f7ff bfd4 	b.w	3c72 <stop>

00003cca <async_start>:
    3cca:	b5f8      	push	{r3, r4, r5, r6, r7, lr}
    3ccc:	9f06      	ldr	r7, [sp, #24]
    3cce:	6904      	ldr	r4, [r0, #16]
    3cd0:	b2c9      	uxtb	r1, r1
    3cd2:	f3ef 8611 	mrs	r6, BASEPRI
    3cd6:	2520      	movs	r5, #32
    3cd8:	f385 8812 	msr	BASEPRI_MAX, r5
    3cdc:	f3bf 8f6f 	isb	sy
    3ce0:	250c      	movs	r5, #12
    3ce2:	fb05 4401 	mla	r4, r5, r1, r4
    3ce6:	6c25      	ldr	r5, [r4, #64]	; 0x40
    3ce8:	f005 0c07 	and.w	ip, r5, #7
    3cec:	f1bc 0f01 	cmp.w	ip, #1
    3cf0:	d10c      	bne.n	3d0c <async_start+0x42>
    3cf2:	6427      	str	r7, [r4, #64]	; 0x40
    3cf4:	f386 8811 	msr	BASEPRI, r6
    3cf8:	f3bf 8f6f 	isb	sy
    3cfc:	e9c4 230e 	strd	r2, r3, [r4, #56]	; 0x38
    3d00:	6843      	ldr	r3, [r0, #4]
    3d02:	f853 3031 	ldr.w	r3, [r3, r1, lsl #3]
    3d06:	4798      	blx	r3
    3d08:	2000      	movs	r0, #0
    3d0a:	bdf8      	pop	{r3, r4, r5, r6, r7, pc}
    3d0c:	f005 05c0 	and.w	r5, r5, #192	; 0xc0
    3d10:	42af      	cmp	r7, r5
    3d12:	f386 8811 	msr	BASEPRI, r6
    3d16:	f3bf 8f6f 	isb	sy
    3d1a:	bf0c      	ite	eq
    3d1c:	f06f 0077 	mvneq.w	r0, #119	; 0x77
    3d20:	f04f 30ff 	movne.w	r0, #4294967295	; 0xffffffff
    3d24:	e7f1      	b.n	3d0a <async_start+0x40>

00003d26 <api_start>:
    3d26:	b513      	push	{r0, r1, r4, lr}
    3d28:	2480      	movs	r4, #128	; 0x80
    3d2a:	9400      	str	r4, [sp, #0]
    3d2c:	f7ff ffcd 	bl	3cca <async_start>
    3d30:	b002      	add	sp, #8
    3d32:	bd10      	pop	{r4, pc}

00003d34 <onoff_started_callback>:
    3d34:	b410      	push	{r4}
    3d36:	6900      	ldr	r0, [r0, #16]
    3d38:	b2cb      	uxtb	r3, r1
    3d3a:	241c      	movs	r4, #28
    3d3c:	fb03 0004 	mla	r0, r3, r4, r0
    3d40:	2100      	movs	r1, #0
    3d42:	bc10      	pop	{r4}
    3d44:	4710      	bx	r2

00003d46 <lfclk_start>:
    3d46:	2000      	movs	r0, #0
    3d48:	f7fe b8aa 	b.w	1ea0 <nrfx_clock_start>

00003d4c <lfclk_stop>:
    3d4c:	2000      	movs	r0, #0
    3d4e:	f000 b8e6 	b.w	3f1e <nrfx_clock_stop>

00003d52 <blocking_start_callback>:
    3d52:	4610      	mov	r0, r2
    3d54:	f7fe be98 	b.w	2a88 <z_impl_k_sem_give>

00003d58 <gpio_nrfx_port_get_raw>:
    3d58:	6843      	ldr	r3, [r0, #4]
    3d5a:	685b      	ldr	r3, [r3, #4]
    3d5c:	f8d3 3510 	ldr.w	r3, [r3, #1296]	; 0x510
    3d60:	600b      	str	r3, [r1, #0]
    3d62:	2000      	movs	r0, #0
    3d64:	4770      	bx	lr

00003d66 <gpio_nrfx_port_set_masked_raw>:
    3d66:	6843      	ldr	r3, [r0, #4]
    3d68:	685b      	ldr	r3, [r3, #4]
    3d6a:	ea02 0001 	and.w	r0, r2, r1
    3d6e:	ea21 0102 	bic.w	r1, r1, r2
    3d72:	f8c3 0508 	str.w	r0, [r3, #1288]	; 0x508
    3d76:	f8c3 150c 	str.w	r1, [r3, #1292]	; 0x50c
    3d7a:	2000      	movs	r0, #0
    3d7c:	4770      	bx	lr

00003d7e <gpio_nrfx_port_set_bits_raw>:
    3d7e:	6843      	ldr	r3, [r0, #4]
    3d80:	685b      	ldr	r3, [r3, #4]
    3d82:	2000      	movs	r0, #0
    3d84:	f8c3 1508 	str.w	r1, [r3, #1288]	; 0x508
    3d88:	4770      	bx	lr

00003d8a <gpio_nrfx_port_clear_bits_raw>:
    3d8a:	6843      	ldr	r3, [r0, #4]
    3d8c:	685b      	ldr	r3, [r3, #4]
    3d8e:	2000      	movs	r0, #0
    3d90:	f8c3 150c 	str.w	r1, [r3, #1292]	; 0x50c
    3d94:	4770      	bx	lr

00003d96 <gpio_nrfx_port_toggle_bits>:
    3d96:	6843      	ldr	r3, [r0, #4]
    3d98:	685a      	ldr	r2, [r3, #4]
    3d9a:	f8d2 3504 	ldr.w	r3, [r2, #1284]	; 0x504
    3d9e:	ea21 0003 	bic.w	r0, r1, r3
    3da2:	400b      	ands	r3, r1
    3da4:	f8c2 0508 	str.w	r0, [r2, #1288]	; 0x508
    3da8:	f8c2 350c 	str.w	r3, [r2, #1292]	; 0x50c
    3dac:	2000      	movs	r0, #0
    3dae:	4770      	bx	lr

00003db0 <gpio_nrfx_manage_callback>:
    3db0:	b510      	push	{r4, lr}
    3db2:	6903      	ldr	r3, [r0, #16]
    3db4:	6858      	ldr	r0, [r3, #4]
    3db6:	b1f8      	cbz	r0, 3df8 <gpio_nrfx_manage_callback+0x48>
    3db8:	4288      	cmp	r0, r1
    3dba:	d119      	bne.n	3df0 <gpio_nrfx_manage_callback+0x40>
    3dbc:	689c      	ldr	r4, [r3, #8]
    3dbe:	6808      	ldr	r0, [r1, #0]
    3dc0:	6058      	str	r0, [r3, #4]
    3dc2:	42a1      	cmp	r1, r4
    3dc4:	d100      	bne.n	3dc8 <gpio_nrfx_manage_callback+0x18>
    3dc6:	6098      	str	r0, [r3, #8]
    3dc8:	2000      	movs	r0, #0
    3dca:	6008      	str	r0, [r1, #0]
    3dcc:	b12a      	cbz	r2, 3dda <gpio_nrfx_manage_callback+0x2a>
    3dce:	685a      	ldr	r2, [r3, #4]
    3dd0:	600a      	str	r2, [r1, #0]
    3dd2:	689a      	ldr	r2, [r3, #8]
    3dd4:	6059      	str	r1, [r3, #4]
    3dd6:	b902      	cbnz	r2, 3dda <gpio_nrfx_manage_callback+0x2a>
    3dd8:	6099      	str	r1, [r3, #8]
    3dda:	2000      	movs	r0, #0
